
text_mode_vga.elf:     file format elf32-littlenios2
text_mode_vga.elf
architecture: nios2:r1, flags 0x00000112:
EXEC_P, HAS_SYMS, D_PAGED
start address 0x08000230

Program Header:
    LOAD off    0x00001000 vaddr 0x08000000 paddr 0x08000000 align 2**12
         filesz 0x00000020 memsz 0x00000020 flags r-x
    LOAD off    0x00001020 vaddr 0x08000020 paddr 0x08000020 align 2**12
         filesz 0x00018f9c memsz 0x00018f9c flags r-x
    LOAD off    0x00019fbc vaddr 0x08018fbc paddr 0x0801aaf4 align 2**12
         filesz 0x00001b38 memsz 0x00001b38 flags rw-
    LOAD off    0x0001c62c vaddr 0x0801c62c paddr 0x0801c62c align 2**12
         filesz 0x00000000 memsz 0x000002f4 flags rw-

Sections:
Idx Name          Size      VMA       LMA       File off  Algn
  0 .entry        00000020  08000000  08000000  00001000  2**5
                  CONTENTS, ALLOC, LOAD, READONLY, CODE
  1 .exceptions   00000210  08000020  08000020  00001020  2**2
                  CONTENTS, ALLOC, LOAD, READONLY, CODE
  2 .text         00018770  08000230  08000230  00001230  2**2
                  CONTENTS, ALLOC, LOAD, READONLY, CODE
  3 .rodata       0000061c  080189a0  080189a0  000199a0  2**2
                  CONTENTS, ALLOC, LOAD, READONLY, DATA
  4 .rwdata       00001b38  08018fbc  0801aaf4  00019fbc  2**2
                  CONTENTS, ALLOC, LOAD, DATA, SMALL_DATA
  5 .bss          000002f4  0801c62c  0801c62c  0001c62c  2**2
                  ALLOC, SMALL_DATA
  6 .onchip_memory2_0 00000000  00000000  00000000  0001baf4  2**0
                  CONTENTS
  7 .sdram        00000000  0801c920  0801c920  0001baf4  2**0
                  CONTENTS
  8 .comment      00000023  00000000  00000000  0001baf4  2**0
                  CONTENTS, READONLY
  9 .debug_aranges 00000fe8  00000000  00000000  0001bb18  2**3
                  CONTENTS, READONLY, DEBUGGING
 10 .debug_info   00026bf5  00000000  00000000  0001cb00  2**0
                  CONTENTS, READONLY, DEBUGGING
 11 .debug_abbrev 00009d9e  00000000  00000000  000436f5  2**0
                  CONTENTS, READONLY, DEBUGGING
 12 .debug_line   0000cec1  00000000  00000000  0004d493  2**0
                  CONTENTS, READONLY, DEBUGGING
 13 .debug_frame  000029d0  00000000  00000000  0005a354  2**2
                  CONTENTS, READONLY, DEBUGGING
 14 .debug_str    00004474  00000000  00000000  0005cd24  2**0
                  CONTENTS, READONLY, DEBUGGING
 15 .debug_loc    00017b11  00000000  00000000  00061198  2**0
                  CONTENTS, READONLY, DEBUGGING
 16 .debug_alt_sim_info 00000040  00000000  00000000  00078cac  2**2
                  CONTENTS, READONLY, DEBUGGING
 17 .debug_ranges 00001930  00000000  00000000  00078cf0  2**3
                  CONTENTS, READONLY, DEBUGGING
 18 .thread_model 00000003  00000000  00000000  0007e152  2**0
                  CONTENTS, READONLY
 19 .cpu          0000000c  00000000  00000000  0007e155  2**0
                  CONTENTS, READONLY
 20 .qsys         00000001  00000000  00000000  0007e161  2**0
                  CONTENTS, READONLY
 21 .simulation_enabled 00000001  00000000  00000000  0007e162  2**0
                  CONTENTS, READONLY
 22 .sysid_hash   00000004  00000000  00000000  0007e163  2**0
                  CONTENTS, READONLY
 23 .sysid_base   00000004  00000000  00000000  0007e167  2**0
                  CONTENTS, READONLY
 24 .sysid_time   00000004  00000000  00000000  0007e16b  2**0
                  CONTENTS, READONLY
 25 .stderr_dev   0000000b  00000000  00000000  0007e16f  2**0
                  CONTENTS, READONLY
 26 .stdin_dev    0000000b  00000000  00000000  0007e17a  2**0
                  CONTENTS, READONLY
 27 .stdout_dev   0000000b  00000000  00000000  0007e185  2**0
                  CONTENTS, READONLY
 28 .sopc_system_name 00000009  00000000  00000000  0007e190  2**0
                  CONTENTS, READONLY
 29 .quartus_project_dir 0000002a  00000000  00000000  0007e199  2**0
                  CONTENTS, READONLY
 30 .jdi          00005018  00000000  00000000  0007e1c3  2**0
                  CONTENTS, READONLY
 31 .sopcinfo     00090bb3  00000000  00000000  000831db  2**0
                  CONTENTS, READONLY
SYMBOL TABLE:
08000000 l    d  .entry	00000000 .entry
08000020 l    d  .exceptions	00000000 .exceptions
08000230 l    d  .text	00000000 .text
080189a0 l    d  .rodata	00000000 .rodata
08018fbc l    d  .rwdata	00000000 .rwdata
0801c62c l    d  .bss	00000000 .bss
00000000 l    d  .onchip_memory2_0	00000000 .onchip_memory2_0
0801c920 l    d  .sdram	00000000 .sdram
00000000 l    d  .comment	00000000 .comment
00000000 l    d  .debug_aranges	00000000 .debug_aranges
00000000 l    d  .debug_info	00000000 .debug_info
00000000 l    d  .debug_abbrev	00000000 .debug_abbrev
00000000 l    d  .debug_line	00000000 .debug_line
00000000 l    d  .debug_frame	00000000 .debug_frame
00000000 l    d  .debug_str	00000000 .debug_str
00000000 l    d  .debug_loc	00000000 .debug_loc
00000000 l    d  .debug_alt_sim_info	00000000 .debug_alt_sim_info
00000000 l    d  .debug_ranges	00000000 .debug_ranges
00000000 l    df *ABS*	00000000 ../text_mode_vga_bsp//obj/HAL/src/crt0.o
08000268 l       .text	00000000 alt_after_alt_main
00000000 l    df *ABS*	00000000 alt_irq_handler.c
00000000 l    df *ABS*	00000000 alt_instruction_exception_entry.c
00000000 l    df *ABS*	00000000 game_ctrl.c
0801aa98 l     O .rwdata	00000004 vga_ctrl
0801c62c l     O .bss	00000002 in_check
0801aa9c l     O .rwdata	00000001 selectedX
0801aa9d l     O .rwdata	00000001 selectedY
0801c62e l     O .bss	00000001 W_kingX
0801c62f l     O .bss	00000001 W_kingY
0801c630 l     O .bss	00000001 B_kingX
0801c631 l     O .bss	00000001 B_kingY
0801c632 l     O .bss	00000001 player_turn
0801c633 l     O .bss	00000001 castling_status
0801c634 l     O .bss	00000004 st
00000000 l    df *ABS*	00000000 main.c
0801aaa0 l     O .rwdata	00000004 vga_ctrl
0801c638 l     O .bss	00000002 in_check
0801aaa4 l     O .rwdata	00000001 addr
00000000 l    df *ABS*	00000000 HID.c
00000000 l    df *ABS*	00000000 MAX3421E.c
00000000 l    df *ABS*	00000000 transfer.c
0801c648 l     O .bss	00000004 usb_delay.2608
0801c64c l     O .bss	00000001 tmp_addr.2609
00000000 l    df *ABS*	00000000 lib2-divmod.c
00000000 l    df *ABS*	00000000 lib2-mul.c
00000000 l    df *ABS*	00000000 printf.c
00000000 l    df *ABS*	00000000 putchar.c
00000000 l    df *ABS*	00000000 puts.c
00000000 l    df *ABS*	00000000 strlen.c
00000000 l    df *ABS*	00000000 vfprintf.c
08018d02 l     O .rodata	00000010 zeroes.4404
0800b47c l     F .text	000000bc __sbprintf
08018d12 l     O .rodata	00000010 blanks.4403
00000000 l    df *ABS*	00000000 wsetup.c
00000000 l    df *ABS*	00000000 dtoa.c
0800b68c l     F .text	00000228 quorem
00000000 l    df *ABS*	00000000 fflush.c
00000000 l    df *ABS*	00000000 findfp.c
0800d1e4 l     F .text	00000008 __fp_unlock
0800d1f8 l     F .text	0000019c __sinit.part.1
0800d394 l     F .text	00000008 __fp_lock
00000000 l    df *ABS*	00000000 mallocr.c
00000000 l    df *ABS*	00000000 fvwrite.c
00000000 l    df *ABS*	00000000 fwalk.c
00000000 l    df *ABS*	00000000 impure.c
08018fec l     O .rwdata	00000424 impure_data
00000000 l    df *ABS*	00000000 locale.c
08019430 l     O .rwdata	00000020 lc_ctype_charset
08019410 l     O .rwdata	00000020 lc_message_charset
08019450 l     O .rwdata	00000038 lconv
00000000 l    df *ABS*	00000000 makebuf.c
00000000 l    df *ABS*	00000000 mallocr.c
00000000 l    df *ABS*	00000000 memchr.c
00000000 l    df *ABS*	00000000 memcpy.c
00000000 l    df *ABS*	00000000 memmove.c
00000000 l    df *ABS*	00000000 memset.c
00000000 l    df *ABS*	00000000 mprec.c
08018d44 l     O .rodata	0000000c p05.2768
00000000 l    df *ABS*	00000000 putc.c
00000000 l    df *ABS*	00000000 mallocr.c
00000000 l    df *ABS*	00000000 s_fpclassify.c
00000000 l    df *ABS*	00000000 sbrkr.c
00000000 l    df *ABS*	00000000 stdio.c
00000000 l    df *ABS*	00000000 strcmp.c
00000000 l    df *ABS*	00000000 vfprintf.c
080109d0 l     F .text	000000fc __sprint_r.part.0
08018e68 l     O .rodata	00000010 zeroes.4349
0801200c l     F .text	000000bc __sbprintf
08018e78 l     O .rodata	00000010 blanks.4348
00000000 l    df *ABS*	00000000 wbuf.c
00000000 l    df *ABS*	00000000 writer.c
00000000 l    df *ABS*	00000000 closer.c
00000000 l    df *ABS*	00000000 mallocr.c
00000000 l    df *ABS*	00000000 fclose.c
00000000 l    df *ABS*	00000000 fputwc.c
00000000 l    df *ABS*	00000000 fstatr.c
00000000 l    df *ABS*	00000000 int_errno.c
00000000 l    df *ABS*	00000000 isattyr.c
00000000 l    df *ABS*	00000000 lseekr.c
00000000 l    df *ABS*	00000000 readr.c
00000000 l    df *ABS*	00000000 wcrtomb.c
00000000 l    df *ABS*	00000000 wctomb_r.c
00000000 l    df *ABS*	00000000 libgcc2.c
00000000 l    df *ABS*	00000000 libgcc2.c
00000000 l    df *ABS*	00000000 adddf3.c
00000000 l    df *ABS*	00000000 divdf3.c
00000000 l    df *ABS*	00000000 eqdf2.c
00000000 l    df *ABS*	00000000 gedf2.c
00000000 l    df *ABS*	00000000 ledf2.c
00000000 l    df *ABS*	00000000 muldf3.c
00000000 l    df *ABS*	00000000 subdf3.c
00000000 l    df *ABS*	00000000 fixdfsi.c
00000000 l    df *ABS*	00000000 floatsidf.c
00000000 l    df *ABS*	00000000 floatunsidf.c
00000000 l    df *ABS*	00000000 libgcc2.c
00000000 l    df *ABS*	00000000 libgcc2.c
00000000 l    df *ABS*	00000000 alt_close.c
08015e78 l     F .text	0000003c alt_get_errno
00000000 l    df *ABS*	00000000 alt_dev.c
08015f8c l     F .text	0000002c alt_dev_null_write
00000000 l    df *ABS*	00000000 alt_errno.c
00000000 l    df *ABS*	00000000 alt_fstat.c
08015fb8 l     F .text	0000003c alt_get_errno
00000000 l    df *ABS*	00000000 alt_isatty.c
080160ac l     F .text	0000003c alt_get_errno
00000000 l    df *ABS*	00000000 alt_load.c
08016194 l     F .text	00000068 alt_load_section
00000000 l    df *ABS*	00000000 alt_lseek.c
08016280 l     F .text	0000003c alt_get_errno
00000000 l    df *ABS*	00000000 alt_main.c
00000000 l    df *ABS*	00000000 alt_malloc_lock.c
00000000 l    df *ABS*	00000000 alt_read.c
0801645c l     F .text	0000003c alt_get_errno
00000000 l    df *ABS*	00000000 alt_release_fd.c
00000000 l    df *ABS*	00000000 alt_sbrk.c
0801aae4 l     O .rwdata	00000004 heap_end
00000000 l    df *ABS*	00000000 alt_tick.c
00000000 l    df *ABS*	00000000 alt_usleep.c
00000000 l    df *ABS*	00000000 alt_write.c
080168a4 l     F .text	0000003c alt_get_errno
00000000 l    df *ABS*	00000000 alt_sys_init.c
080169e0 l     F .text	00000034 alt_dev_reg
08019a38 l     O .rwdata	00001060 jtag_uart_0
00000000 l    df *ABS*	00000000 altera_avalon_jtag_uart_fd.c
00000000 l    df *ABS*	00000000 altera_avalon_jtag_uart_init.c
08016cd4 l     F .text	0000020c altera_avalon_jtag_uart_irq
08016ee0 l     F .text	000000a0 altera_avalon_jtag_uart_timeout
00000000 l    df *ABS*	00000000 altera_avalon_jtag_uart_ioctl.c
00000000 l    df *ABS*	00000000 altera_avalon_jtag_uart_read.c
00000000 l    df *ABS*	00000000 altera_avalon_jtag_uart_write.c
00000000 l    df *ABS*	00000000 altera_avalon_spi.c
00000000 l    df *ABS*	00000000 altera_avalon_timer_sc.c
08017714 l     F .text	00000078 alt_avalon_timer_sc_irq
00000000 l    df *ABS*	00000000 alt_alarm_start.c
00000000 l    df *ABS*	00000000 alt_busy_sleep.c
00000000 l    df *ABS*	00000000 alt_dcache_flush_all.c
00000000 l    df *ABS*	00000000 alt_dev_llist_insert.c
08017aac l     F .text	0000003c alt_get_errno
00000000 l    df *ABS*	00000000 alt_do_ctors.c
00000000 l    df *ABS*	00000000 alt_do_dtors.c
00000000 l    df *ABS*	00000000 alt_icache_flush_all.c
00000000 l    df *ABS*	00000000 alt_iic.c
00000000 l    df *ABS*	00000000 alt_iic_isr_register.c
00000000 l    df *ABS*	00000000 alt_io_redirect.c
08017f0c l     F .text	000000e4 alt_open_fd
00000000 l    df *ABS*	00000000 alt_irq_vars.c
00000000 l    df *ABS*	00000000 alt_open.c
0801806c l     F .text	0000003c alt_get_errno
080180a8 l     F .text	000000ec alt_file_locked
00000000 l    df *ABS*	00000000 altera_nios2_gen2_irq.c
00000000 l    df *ABS*	00000000 alt_find_dev.c
00000000 l    df *ABS*	00000000 alt_find_file.c
00000000 l    df *ABS*	00000000 alt_get_fd.c
00000000 l    df *ABS*	00000000 atexit.c
00000000 l    df *ABS*	00000000 exit.c
00000000 l    df *ABS*	00000000 memcmp.c
00000000 l    df *ABS*	00000000 __atexit.c
00000000 l    df *ABS*	00000000 __call_atexit.c
00000000 l    df *ABS*	00000000 alt_exit.c
0801c684 g     O .bss	00000004 alt_instruction_exception_handler
08009000 g     F .text	00000018 putchar
08003188 g     F .text	00000398 makeMove
0800feac g     F .text	00000074 _mprec_log10
0800ff98 g     F .text	0000008c __any_on
08012718 g     F .text	00000054 _isatty_r
08018d50 g     O .rodata	00000028 __mprec_tinytens
08016398 g     F .text	0000007c alt_main
0801aaa8 g     O .rwdata	00000008 ctrl_xfers
08009018 g     F .text	000000c0 _puts_r
0801c820 g     O .bss	00000100 alt_irq
0801276c g     F .text	00000060 _lseek_r
08008564 g     F .text	00000644 USB_Task
0801aaf4 g       *ABS*	00000000 __flash_rwdata_start
08014850 g     F .text	00000088 .hidden __eqdf2
0800026c g     F .text	000001f4 initGame
0801c920 g       *ABS*	00000000 __alt_heap_start
08008fbc g     F .text	0000003c printf
0801282c g     F .text	0000009c _wcrtomb_r
08007688 g     F .text	00000088 kbdPoll
08010890 g     F .text	0000005c __sseek
0800d544 g     F .text	00000010 __sinit
080120c8 g     F .text	00000140 __swbuf_r
0800e018 g     F .text	0000007c _setlocale_r
0800d39c g     F .text	00000078 __sfmoreglue
08016438 g     F .text	00000024 __malloc_unlock
08006584 g     F .text	000001f0 GetDriverandReport
0800ece8 g     F .text	0000015c memmove
0800d52c g     F .text	00000018 _cleanup
0800ef6c g     F .text	000000a8 _Balloc
080077dc g     F .text	00000088 MAXreg_wr
08018fbc g     O .rwdata	00000030 ClientDriverTable
080148d8 g     F .text	000000dc .hidden __gtdf2
080182f0 g     F .text	00000024 altera_nios2_gen2_irq_init
08008ba8 g     F .text	0000002c MSDProbe
08000000 g     F .entry	0000000c __reset
08008064 g     F .text	000000e8 XferCtrlData
08000020 g       *ABS*	00000000 __flash_exceptions_start
0801c688 g     O .bss	00000010 hid_ep
080126bc g     F .text	0000005c _fstat_r
0801c668 g     O .bss	00000004 errno
0801080c g     F .text	00000008 __seofread
0801c670 g     O .bss	00000004 alt_argv
08022a98 g       *ABS*	00000000 _gp
08016874 g     F .text	00000030 usleep
080079c8 g     F .text	0000007c MAXreg_rd
080198b8 g     O .rwdata	00000180 alt_fd_list
080008c0 g     F .text	000028c8 checkMove
080075c0 g     F .text	00000040 HID_init
08008ff8 g     F .text	00000008 _putchar_r
08018314 g     F .text	00000090 alt_find_dev
0800eba0 g     F .text	00000148 memcpy
0800d1ec g     F .text	0000000c _cleanup_r
08015c90 g     F .text	000000dc .hidden __floatsidf
08017ff0 g     F .text	0000007c alt_io_redirect
080149b4 g     F .text	000000f4 .hidden __ltdf2
080189a0 g       *ABS*	00000000 __DTOR_END__
080090d8 g     F .text	00000014 puts
08018570 g     F .text	0000009c alt_exception_cause_generated_bad_addr
080106f0 g     F .text	00000074 __fpclassifyd
0800fe08 g     F .text	000000a4 __ratio
08011ff0 g     F .text	0000001c __vfiprintf_internal
080170d8 g     F .text	0000021c altera_avalon_jtag_uart_read
08008f8c g     F .text	00000030 _printf_r
00000000 g       *ABS*	00000000 __alt_mem_onchip_memory2_0
08008ea8 g     F .text	00000064 .hidden __udivsi3
080160e8 g     F .text	000000ac isatty
08018da0 g     O .rodata	000000c8 __mprec_tens
0800e094 g     F .text	0000000c __locale_charset
0801c664 g     O .bss	00000004 __malloc_top_pad
0801aab0 g     O .rwdata	00000001 usb_task_state
0801aabc g     O .rwdata	00000004 __mb_cur_max
0800e0c4 g     F .text	0000000c _localeconv_r
0800f3a0 g     F .text	0000003c __i2b
0800d9c8 g     F .text	000004c8 __sfvwrite_r
08010764 g     F .text	00000054 _sbrk_r
080127cc g     F .text	00000060 _read_r
08007d20 g     F .text	00000094 MAX3421E_init
08006a50 g     F .text	00000034 setKeycode
0801aadc g     O .rwdata	00000004 alt_max_fd
080123b0 g     F .text	000000f0 _fclose_r
0800d1b4 g     F .text	00000030 fflush
0801c660 g     O .bss	00000004 __malloc_max_sbrked_mem
080135d4 g     F .text	000008ac .hidden __adddf3
0800fbb0 g     F .text	0000010c __b2d
08013010 g     F .text	000005c4 .hidden __umoddi3
080162bc g     F .text	000000dc lseek
0801aab4 g     O .rwdata	00000004 _global_impure_ptr
0801018c g     F .text	00000564 _realloc_r
0801c920 g       *ABS*	00000000 __bss_end
08017e1c g     F .text	000000f0 alt_iic_isr_register
0801676c g     F .text	00000108 alt_tick
08012a14 g     F .text	000005fc .hidden __udivdi3
08012618 g     F .text	00000024 _fputwc_r
08018d78 g     O .rodata	00000028 __mprec_bigtens
0800f184 g     F .text	00000104 __s2b
08015d6c g     F .text	000000a8 .hidden __floatunsidf
0800f8f0 g     F .text	00000060 __mcmp
08000460 g     F .text	00000460 processMouseClick
0800d564 g     F .text	00000018 __fp_lock_all
08017dd0 g     F .text	0000004c alt_ic_irq_enabled
080166d0 g     F .text	0000009c alt_alarm_stop
0801c680 g     O .bss	00000004 alt_irq_active
08008c70 g     F .text	0000002c DummyProbe
080000fc g     F .exceptions	000000d4 alt_irq_handler
08019890 g     O .rwdata	00000028 alt_dev_null
08007600 g     F .text	00000088 mousePoll
08007b74 g     F .text	00000024 Vbus_power
08006470 g     F .text	00000070 endGame
08017a8c g     F .text	00000020 alt_dcache_flush_all
0800f288 g     F .text	00000068 __hi0bits
08015c10 g     F .text	00000080 .hidden __fixdfsi
0801aaf4 g       *ABS*	00000000 __ram_rwdata_end
0801aad4 g     O .rwdata	00000008 alt_dev_list
080168e0 g     F .text	00000100 write
08010024 g     F .text	000000a0 _putc_r
08018fbc g       *ABS*	00000000 __ram_rodata_end
0801c64d g     O .bss	00000001 usb_error
08015ff4 g     F .text	000000b8 fstat
080149b4 g     F .text	000000f4 .hidden __ledf2
0800f668 g     F .text	00000140 __pow5mult
08010ae4 g     F .text	0000150c ___vfiprintf_internal_r
0801c658 g     O .bss	00000004 __nlocale_changed
08008f0c g     F .text	00000058 .hidden __umodsi3
0801c920 g       *ABS*	00000000 end
08016c14 g     F .text	000000c0 altera_avalon_jtag_uart_init
080001d0 g     F .exceptions	00000060 alt_instruction_exception_entry
080081c0 g     F .text	0000017c XferDispatchPkt
080189a0 g       *ABS*	00000000 __CTOR_LIST__
0c000000 g       *ABS*	00000000 __alt_stack_pointer
0801778c g     F .text	0000007c alt_avalon_timer_sc_init
08015e14 g     F .text	00000064 .hidden __clzsi2
080172f4 g     F .text	00000224 altera_avalon_jtag_uart_write
0800d554 g     F .text	00000004 __sfp_lock_acquire
0800eabc g     F .text	000000e4 memchr
08009184 g     F .text	000022dc ___vfprintf_internal_r
08007ee4 g     F .text	00000034 MaxGpxHandler
0800d6b8 g     F .text	00000310 _free_r
0800e0a0 g     F .text	00000010 __locale_mb_cur_max
080187ec g     F .text	00000180 __call_exitprocs
0801c654 g     O .bss	00000004 __mlocale_changed
0801aac0 g     O .rwdata	00000004 __malloc_sbrk_base
08000230 g     F .text	0000003c _start
0801c678 g     O .bss	00000004 _alt_tick_rate
08007a44 g     F .text	00000090 MAXbytes_rd
0800f7a8 g     F .text	00000148 __lshift
08017518 g     F .text	000001fc alt_avalon_spi_command
0801c67c g     O .bss	00000004 _alt_nticks
08016498 g     F .text	00000104 read
08016a4c g     F .text	00000064 alt_sys_init
0801c7d8 g     O .bss	00000048 devtable
080186d4 g     F .text	00000118 __register_exitproc
080071b8 g     F .text	00000408 HIDKProbe
0801c698 g     O .bss	00000018 msd_ep
0800f3dc g     F .text	0000028c __multiply
08016f80 g     F .text	00000068 altera_avalon_jtag_uart_close
080084cc g     F .text	00000098 USB_init
08008f64 g     F .text	00000028 .hidden __mulsi3
0801c6d8 g     O .bss	00000100 bigbuf
08018fbc g       *ABS*	00000000 __ram_rwdata_start
080189a0 g       *ABS*	00000000 __ram_rodata_start
0801c6b0 g     O .bss	00000028 __malloc_current_mallinfo
0801c644 g     O .bss	00000001 last_usb_task_state
0800fcbc g     F .text	0000014c __d2b
0801c63c g     O .bss	00000008 dev0ep
080067b8 g     F .text	00000048 clearLED
08016ab0 g     F .text	00000060 altera_avalon_jtag_uart_read_fd
080184ac g     F .text	000000c4 alt_get_fd
08017934 g     F .text	00000158 alt_busy_sleep
08008bd4 g     F .text	00000038 MSDEventHandler
08012280 g     F .text	00000054 _close_r
08018658 g     F .text	0000007c memcmp
08016b70 g     F .text	00000050 altera_avalon_jtag_uart_close_fd
0801c920 g       *ABS*	00000000 __alt_stack_base
08016bc0 g     F .text	00000054 altera_avalon_jtag_uart_ioctl_fd
0800b538 g     F .text	00000154 __swsetup_r
08013e80 g     F .text	000009d0 .hidden __divdf3
0800d414 g     F .text	00000118 __sfp
0800ff20 g     F .text	00000078 __copybits
08019488 g     O .rwdata	00000408 __malloc_av_
0800d560 g     F .text	00000004 __sinit_lock_release
08008c38 g     F .text	00000038 CDCEventHandler
08014aa8 g     F .text	0000086c .hidden __muldf3
08008c9c g     F .text	00000038 DummyEventHandler
080107b8 g     F .text	00000054 __sread
080183a4 g     F .text	00000108 alt_find_file
08017ae8 g     F .text	000000a4 alt_dev_llist_insert
08016414 g     F .text	00000024 __malloc_lock
08016620 g     F .text	000000b0 sbrk
0800d158 g     F .text	0000005c _fflush_r
080122d4 g     F .text	000000dc _calloc_r
0801c62c g       *ABS*	00000000 __bss_start
08007b98 g     F .text	00000188 MAX_busprobe
0801c63a g     O .bss	00000002 hid_device
0800ee44 g     F .text	00000128 memset
08006a84 g     F .text	0000032c main
08007db4 g     F .text	00000064 MAX3421E_Task
0801c674 g     O .bss	00000004 alt_envp
0801c65c g     O .bss	00000004 __malloc_max_total_mem
08016b10 g     F .text	00000060 altera_avalon_jtag_uart_write_fd
08012208 g     F .text	00000018 __swbuf
08008d2c g     F .text	00000084 ConvUTF8ToStr
080108ec g     F .text	00000008 __sclose
0c000000 g       *ABS*	00000000 __alt_heap_limit
080124a0 g     F .text	00000014 fclose
0800b8b4 g     F .text	00001688 _dtoa_r
0800e2b0 g     F .text	0000080c _malloc_r
08012988 g     F .text	00000030 __ascii_wctomb
0801aae0 g     O .rwdata	00000004 alt_errno
0800de90 g     F .text	000000c4 _fwalk
080100c4 g     F .text	000000c8 putc
08008db0 g     F .text	00000084 .hidden __divsi3
0800833c g     F .text	00000190 XferInTransfer
08006918 g     F .text	00000138 printSignedHex1
0800d594 g     F .text	00000124 _malloc_trim_r
080189a0 g       *ABS*	00000000 __CTOR_END__
08008cf4 g     F .text	00000038 GetDevtable
080108f4 g     F .text	000000dc strcmp
080189a0 g       *ABS*	00000000 __flash_rodata_start
080189a0 g       *ABS*	00000000 __DTOR_LIST__
0800814c g     F .text	00000074 XferCtrlND
08014850 g     F .text	00000088 .hidden __nedf2
08007ad4 g     F .text	000000a0 MAX3421E_reset
08016a14 g     F .text	00000038 alt_irq_init
0801659c g     F .text	00000084 alt_release_fd
08003520 g     F .text	0000129c inCheck
08018e88 g     O .rodata	00000100 .hidden __clz_tab
0801c650 g     O .bss	00000004 _PathLocale
0801860c g     F .text	00000014 atexit
08012220 g     F .text	00000060 _write_r
0800e0d0 g     F .text	00000018 setlocale
0801aab8 g     O .rwdata	00000004 _impure_ptr
0801c66c g     O .bss	00000004 alt_argc
0800cf3c g     F .text	0000021c __sflush_r
08017bec g     F .text	00000060 _do_dtors
0800e0bc g     F .text	00000008 __locale_cjk_lang
08007864 g     F .text	00000164 MAXbytes_wr
08000020 g       .exceptions	00000000 alt_irq_entry
0800fb4c g     F .text	00000064 __ulp
0800d57c g     F .text	00000018 __fp_unlock_all
0801aacc g     O .rwdata	00000008 alt_fs_list
080063f4 g     F .text	0000007c clearHighlight
08008c0c g     F .text	0000002c CDCProbe
08000020 g       *ABS*	00000000 __ram_exceptions_start
0800e0e8 g     F .text	0000000c localeconv
08006774 g     F .text	00000044 setLED
08008cd4 g     F .text	00000020 GetUsbTaskState
08017c6c g     F .text	00000050 alt_ic_isr_register
08018a64 g     O .rodata	00000010 devclasses
0801aaf4 g       *ABS*	00000000 _edata
08007748 g     F .text	00000038 HIDKEventHandler
0801c920 g       *ABS*	00000000 _end
08007e18 g     F .text	000000cc MaxIntHandler
080124b4 g     F .text	00000164 __fputwc
08000230 g       *ABS*	00000000 __ram_exceptions_end
08016fe8 g     F .text	000000f0 altera_avalon_jtag_uart_ioctl
08007780 g     F .text	00000034 SPI_init
08017d44 g     F .text	0000008c alt_ic_irq_disable
08010814 g     F .text	0000007c __swrite
0801aac4 g     O .rwdata	00000004 __malloc_trim_threshold
0800e0b0 g     F .text	0000000c __locale_msgcharset
08018620 g     F .text	00000038 exit
0800df54 g     F .text	000000c4 _fwalk_reent
0800f950 g     F .text	000001fc __mdiff
08008e34 g     F .text	00000074 .hidden __modsi3
0c000000 g       *ABS*	00000000 __alt_data_end
08000020 g     F .exceptions	00000000 alt_exception
0800d558 g     F .text	00000004 __sfp_lock_release
08000000 g       *ABS*	00000000 __alt_mem_sdram
08007710 g     F .text	00000038 HIDMEventHandler
0801896c g     F .text	00000034 _exit
08017808 g     F .text	0000012c alt_alarm_start
08006800 g     F .text	00000118 printSignedHex0
0800e0f4 g     F .text	000001bc __smakebuf_r
080090ec g     F .text	00000098 strlen
08018194 g     F .text	0000015c open
080148d8 g     F .text	000000dc .hidden __gedf2
0801aac8 g     O .rwdata	00000004 __wctomb
08010acc g     F .text	00000018 __sprint_r
08017c4c g     F .text	00000020 alt_icache_flush_all
0801aaf0 g     O .rwdata	00000004 alt_priority_mask
08017cbc g     F .text	00000088 alt_ic_irq_enable
0800b460 g     F .text	0000001c __vfprintf_internal
08006db0 g     F .text	00000408 HIDMProbe
080129b8 g     F .text	0000005c _wctomb_r
080077b4 g     F .text	00000028 SPI_wr
08015314 g     F .text	000008fc .hidden __subdf3
080064e0 g     F .text	000000a4 simulateGame
0800f2f0 g     F .text	000000b0 __lo0bits
0801aae8 g     O .rwdata	00000008 alt_alarm_list
08017b8c g     F .text	00000060 _do_ctors
080128c8 g     F .text	000000c0 wcrtomb
08015eb4 g     F .text	000000d8 close
080161fc g     F .text	00000084 alt_load
080047bc g     F .text	00001c38 checkMate
0801263c g     F .text	00000080 fputwc
0800d55c g     F .text	00000004 __sinit_lock_acquire
08007f18 g     F .text	0000014c XferCtrlReq
0800f03c g     F .text	00000148 __multadd
0800f014 g     F .text	00000028 _Bfree



Disassembly of section .entry:

08000000 <__reset>:
 * Jump to the _start entry point in the .text section if reset code
 * is allowed or if optimizing for RTL simulation.
 */
#if defined(ALT_ALLOW_CODE_AT_RESET) || defined(ALT_SIM_OPTIMIZE)
    /* Jump to the _start entry point in the .text section. */
    movhi r1, %hi(_start)
 8000000:	00420034 	movhi	at,2048
    ori r1, r1, %lo(_start)
 8000004:	08408c14 	ori	at,at,560
    jmp r1
 8000008:	0800683a 	jmp	at
	...

Disassembly of section .exceptions:

08000020 <alt_exception>:

#else /* ALT_EXCEPTION_STACK disabled */
        /* 
         * Reserve space on normal stack for registers about to be pushed.
         */
        addi  sp, sp, -76
 8000020:	deffed04 	addi	sp,sp,-76
         * documentation for details).
         *
         * Leave a gap in the stack frame at 4(sp) for the muldiv handler to
         * store zero into.
         */
        stw   ra,  0(sp)
 8000024:	dfc00015 	stw	ra,0(sp)
        stw   r1,   8(sp)
 8000028:	d8400215 	stw	at,8(sp)
        stw   r2,  12(sp)
 800002c:	d8800315 	stw	r2,12(sp)
        stw   r3,  16(sp)
 8000030:	d8c00415 	stw	r3,16(sp)
        stw   r4,  20(sp)
 8000034:	d9000515 	stw	r4,20(sp)
        stw   r5,  24(sp)
 8000038:	d9400615 	stw	r5,24(sp)
        stw   r6,  28(sp)
 800003c:	d9800715 	stw	r6,28(sp)
        stw   r7,  32(sp)
 8000040:	d9c00815 	stw	r7,32(sp)
        rdctl r5, estatus   /* Read early to avoid usage stall */
 8000044:	000b307a 	rdctl	r5,estatus
        stw   r8,  36(sp)
 8000048:	da000915 	stw	r8,36(sp)
        stw   r9,  40(sp)
 800004c:	da400a15 	stw	r9,40(sp)
        stw   r10, 44(sp)
 8000050:	da800b15 	stw	r10,44(sp)
        stw   r11, 48(sp)
 8000054:	dac00c15 	stw	r11,48(sp)
        stw   r12, 52(sp)
 8000058:	db000d15 	stw	r12,52(sp)
        stw   r13, 56(sp)
 800005c:	db400e15 	stw	r13,56(sp)
        stw   r14, 60(sp)
 8000060:	db800f15 	stw	r14,60(sp)
        stw   r15, 64(sp)
 8000064:	dbc01015 	stw	r15,64(sp)
        /*
         * ea-4 contains the address of the instruction being executed
         * when the exception occured. For interrupt exceptions, we will
         * will be re-issue the isntruction. Store it in 72(sp)
         */
        stw   r5,  68(sp)  /* estatus */
 8000068:	d9401115 	stw	r5,68(sp)
        addi  r15, ea, -4  /* instruction that caused exception */
 800006c:	ebffff04 	addi	r15,ea,-4
        stw   r15,  72(sp)
 8000070:	dbc01215 	stw	r15,72(sp)
#else
        /*
         * Test to see if the exception was a software exception or caused 
         * by an external interrupt, and vector accordingly.
         */
        rdctl r4, ipending
 8000074:	0009313a 	rdctl	r4,ipending
        andi  r2, r5, 1
 8000078:	2880004c 	andi	r2,r5,1
        beq   r2, zero, .Lnot_irq
 800007c:	10000326 	beq	r2,zero,800008c <alt_exception+0x6c>
        beq   r4, zero, .Lnot_irq
 8000080:	20000226 	beq	r4,zero,800008c <alt_exception+0x6c>
        /*
         * Now that all necessary registers have been preserved, call 
         * alt_irq_handler() to process the interrupts.
         */

        call alt_irq_handler
 8000084:	80000fc0 	call	80000fc <alt_irq_handler>

        .section .exceptions.irqreturn, "xa"

        br    .Lexception_exit
 8000088:	00000706 	br	80000a8 <alt_exception+0x88>
         * upon completion, so we write ea (address of instruction *after*
         * the one where the exception occured) into 72(sp). The actual
         * instruction that caused the exception is written in r2, which these
         * handlers will utilize.
         */
        stw ea, 72(sp) /* EA is PC+4 so will skip over instruction causing exception */
 800008c:	df401215 	stw	ea,72(sp)
.Lunknown_16bit:
        addi.n r4, r4, 2 /* Need PC+2 to skip over instruction causing exception */
        stw r4, 72(sp)

#else /* CDX is not Enabled and all instructions are 32bits */
        ldw r2, -4(ea) /* Instruction value that caused exception */
 8000090:	e8bfff17 	ldw	r2,-4(ea)
         * debugger is present) or go into an infinite loop since the
         * handling behavior is undefined; in that case we will not return here.
         */

        /* Load exception-causing address as first argument (r4) */
        addi   r4, ea, -4
 8000094:	e93fff04 	addi	r4,ea,-4

        /* Call the instruction-exception entry */
        call   alt_instruction_exception_entry
 8000098:	80001d00 	call	80001d0 <alt_instruction_exception_entry>
         * instruction
         *
         * Return code was 0: Skip. The instruction after the exception is
         * already stored in 72(sp).
         */
        bne   r2, r0, .Lexception_exit
 800009c:	1000021e 	bne	r2,zero,80000a8 <alt_exception+0x88>

        /*
         * Otherwise, modify 72(sp) to re-issue the instruction that caused the
         * exception.
         */
        addi  r15, ea, -4  /* instruction that caused exception */
 80000a0:	ebffff04 	addi	r15,ea,-4
        stw   r15,  72(sp)
 80000a4:	dbc01215 	stw	r15,72(sp)
        /* 
         * Restore the saved registers, so that all general purpose registers 
         * have been restored to their state at the time the interrupt occured.
         */

        ldw   r5,  68(sp)
 80000a8:	d9401117 	ldw	r5,68(sp)
        ldw   ea,  72(sp)  /* This becomes the PC once eret is executed */
 80000ac:	df401217 	ldw	ea,72(sp)
        ldw   ra,   0(sp)
 80000b0:	dfc00017 	ldw	ra,0(sp)

        wrctl estatus, r5
 80000b4:	2801707a 	wrctl	estatus,r5

        ldw   r1,   8(sp)
 80000b8:	d8400217 	ldw	at,8(sp)
        ldw   r2,  12(sp)
 80000bc:	d8800317 	ldw	r2,12(sp)
        ldw   r3,  16(sp)
 80000c0:	d8c00417 	ldw	r3,16(sp)
        ldw   r4,  20(sp)
 80000c4:	d9000517 	ldw	r4,20(sp)
        ldw   r5,  24(sp)
 80000c8:	d9400617 	ldw	r5,24(sp)
        ldw   r6,  28(sp)
 80000cc:	d9800717 	ldw	r6,28(sp)
        ldw   r7,  32(sp)
 80000d0:	d9c00817 	ldw	r7,32(sp)

#if defined(ALT_EXCEPTION_STACK) && defined(ALT_STACK_CHECK)
        ldw   et, %gprel(alt_exception_old_stack_limit)(gp)
#endif

        ldw   r8,  36(sp)
 80000d4:	da000917 	ldw	r8,36(sp)
        ldw   r9,  40(sp)
 80000d8:	da400a17 	ldw	r9,40(sp)
        ldw   r10, 44(sp)
 80000dc:	da800b17 	ldw	r10,44(sp)
        ldw   r11, 48(sp)
 80000e0:	dac00c17 	ldw	r11,48(sp)
        ldw   r12, 52(sp)
 80000e4:	db000d17 	ldw	r12,52(sp)
        ldw   r13, 56(sp)
 80000e8:	db400e17 	ldw	r13,56(sp)
        ldw   r14, 60(sp)
 80000ec:	db800f17 	ldw	r14,60(sp)
        ldw   r15, 64(sp)
 80000f0:	dbc01017 	ldw	r15,64(sp)
        stw   et, %gprel(alt_stack_limit_value)(gp)
        stw   zero, %gprel(alt_exception_old_stack_limit)(gp)
#endif /* ALT_STACK_CHECK */
        ldw   sp,  76(sp)
#else /* ALT_EXCEPTION_STACK disabled */
        addi  sp, sp, 76
 80000f4:	dec01304 	addi	sp,sp,76

        /*
         * Return to the interrupted instruction.
         */

        eret
 80000f8:	ef80083a 	eret

080000fc <alt_irq_handler>:
 * instruction is present if the macro ALT_CI_INTERRUPT_VECTOR defined.
 */

void alt_irq_handler (void) __attribute__ ((section (".exceptions")));
void alt_irq_handler (void)
{
 80000fc:	defff904 	addi	sp,sp,-28
 8000100:	dfc00615 	stw	ra,24(sp)
 8000104:	df000515 	stw	fp,20(sp)
 8000108:	df000504 	addi	fp,sp,20
  
  /*
   * Notify the operating system that we are at interrupt level.
   */ 
  
  ALT_OS_INT_ENTER();
 800010c:	0001883a 	nop
#ifndef NIOS2_EIC_PRESENT
static ALT_INLINE alt_u32 ALT_ALWAYS_INLINE alt_irq_pending (void)
{
  alt_u32 active;

  NIOS2_READ_IPENDING (active);
 8000110:	0005313a 	rdctl	r2,ipending
 8000114:	e0bffe15 	stw	r2,-8(fp)

  return active;
 8000118:	e0bffe17 	ldw	r2,-8(fp)
   * Consider the case where the high priority interupt is asserted during
   * the interrupt entry sequence for a lower priority interrupt to see why
   * this is the case.
   */

  active = alt_irq_pending ();
 800011c:	e0bffb15 	stw	r2,-20(fp)

  do
  {
    i = 0;
 8000120:	e03ffd15 	stw	zero,-12(fp)
    mask = 1;
 8000124:	00800044 	movi	r2,1
 8000128:	e0bffc15 	stw	r2,-16(fp)
     * called to clear the interrupt condition.
     */

    do
    {
      if (active & mask)
 800012c:	e0fffb17 	ldw	r3,-20(fp)
 8000130:	e0bffc17 	ldw	r2,-16(fp)
 8000134:	1884703a 	and	r2,r3,r2
 8000138:	10001426 	beq	r2,zero,800018c <alt_irq_handler+0x90>
      { 
#ifdef ALT_ENHANCED_INTERRUPT_API_PRESENT
        alt_irq[i].handler(alt_irq[i].context); 
 800013c:	008200b4 	movhi	r2,2050
 8000140:	10b20804 	addi	r2,r2,-14304
 8000144:	e0fffd17 	ldw	r3,-12(fp)
 8000148:	180690fa 	slli	r3,r3,3
 800014c:	10c5883a 	add	r2,r2,r3
 8000150:	10c00017 	ldw	r3,0(r2)
 8000154:	008200b4 	movhi	r2,2050
 8000158:	10b20804 	addi	r2,r2,-14304
 800015c:	e13ffd17 	ldw	r4,-12(fp)
 8000160:	200890fa 	slli	r4,r4,3
 8000164:	1105883a 	add	r2,r2,r4
 8000168:	10800104 	addi	r2,r2,4
 800016c:	10800017 	ldw	r2,0(r2)
 8000170:	1009883a 	mov	r4,r2
 8000174:	183ee83a 	callr	r3
#else
        alt_irq[i].handler(alt_irq[i].context, i); 
#endif
        break;
 8000178:	0001883a 	nop
#ifndef NIOS2_EIC_PRESENT
static ALT_INLINE alt_u32 ALT_ALWAYS_INLINE alt_irq_pending (void)
{
  alt_u32 active;

  NIOS2_READ_IPENDING (active);
 800017c:	0005313a 	rdctl	r2,ipending
 8000180:	e0bfff15 	stw	r2,-4(fp)

  return active;
 8000184:	e0bfff17 	ldw	r2,-4(fp)
 8000188:	00000706 	br	80001a8 <alt_irq_handler+0xac>
      }
      mask <<= 1;
 800018c:	e0bffc17 	ldw	r2,-16(fp)
 8000190:	1085883a 	add	r2,r2,r2
 8000194:	e0bffc15 	stw	r2,-16(fp)
      i++;
 8000198:	e0bffd17 	ldw	r2,-12(fp)
 800019c:	10800044 	addi	r2,r2,1
 80001a0:	e0bffd15 	stw	r2,-12(fp)

    } while (1);
 80001a4:	003fe106 	br	800012c <__alt_data_end+0xfc00012c>

    active = alt_irq_pending ();
 80001a8:	e0bffb15 	stw	r2,-20(fp)
    
  } while (active);
 80001ac:	e0bffb17 	ldw	r2,-20(fp)
 80001b0:	103fdb1e 	bne	r2,zero,8000120 <__alt_data_end+0xfc000120>

  /*
   * Notify the operating system that interrupt processing is complete.
   */ 

  ALT_OS_INT_EXIT();
 80001b4:	0001883a 	nop
}
 80001b8:	0001883a 	nop
 80001bc:	e037883a 	mov	sp,fp
 80001c0:	dfc00117 	ldw	ra,4(sp)
 80001c4:	df000017 	ldw	fp,0(sp)
 80001c8:	dec00204 	addi	sp,sp,8
 80001cc:	f800283a 	ret

080001d0 <alt_instruction_exception_entry>:
 * that handler if it has been registered. Absent a handler, it will
 * break break or hang as discussed below.
 */
int 
alt_instruction_exception_entry (alt_u32 exception_pc)
{
 80001d0:	defffb04 	addi	sp,sp,-20
 80001d4:	dfc00415 	stw	ra,16(sp)
 80001d8:	df000315 	stw	fp,12(sp)
 80001dc:	df000304 	addi	fp,sp,12
 80001e0:	e13fff15 	stw	r4,-4(fp)
  cause = ( (cause & NIOS2_EXCEPTION_REG_CAUSE_MASK) >>
              NIOS2_EXCEPTION_REG_CAUSE_OFST );

  NIOS2_READ_BADADDR(badaddr);
#else
  cause = NIOS2_EXCEPTION_CAUSE_NOT_PRESENT;
 80001e4:	00bfffc4 	movi	r2,-1
 80001e8:	e0bffd15 	stw	r2,-12(fp)
  badaddr = 0;
 80001ec:	e03ffe15 	stw	zero,-8(fp)
#endif /* NIOS2_HAS_EXTRA_EXCEPTION_INFO */

  if(alt_instruction_exception_handler) {
 80001f0:	d0a6fb17 	ldw	r2,-25620(gp)
 80001f4:	10000726 	beq	r2,zero,8000214 <alt_instruction_exception_entry+0x44>
     * Call handler. Its return value indicates whether the exception-causing
     * instruction should be re-issued. The code that called us,
     * alt_eceptions_entry.S, will look at this value and adjust the ea
     * register as necessary
     */
    return alt_instruction_exception_handler(cause, exception_pc, badaddr);
 80001f8:	d0a6fb17 	ldw	r2,-25620(gp)
 80001fc:	e0fffd17 	ldw	r3,-12(fp)
 8000200:	e1bffe17 	ldw	r6,-8(fp)
 8000204:	e17fff17 	ldw	r5,-4(fp)
 8000208:	1809883a 	mov	r4,r3
 800020c:	103ee83a 	callr	r2
 8000210:	00000206 	br	800021c <alt_instruction_exception_entry+0x4c>
   *    (a peripheral which negates its interrupt output before its
   *    interrupt handler has been executed will cause spurious interrupts)
   */
  else {
#ifdef NIOS2_HAS_DEBUG_STUB
    NIOS2_BREAK();
 8000214:	003da03a 	break	0
      ;
#endif /* NIOS2_HAS_DEBUG_STUB */
  }

  /* We should not get here. Remove compiler warning. */
  return NIOS2_EXCEPTION_RETURN_REISSUE_INST;
 8000218:	0005883a 	mov	r2,zero
}
 800021c:	e037883a 	mov	sp,fp
 8000220:	dfc00117 	ldw	ra,4(sp)
 8000224:	df000017 	ldw	fp,0(sp)
 8000228:	dec00204 	addi	sp,sp,8
 800022c:	f800283a 	ret

Disassembly of section .text:

08000230 <_start>:

    /*
     * Now that the caches are initialized, set up the stack pointer and global pointer.
     * The values provided by the linker are assumed to be correctly aligned.
     */
    movhi sp, %hi(__alt_stack_pointer)
 8000230:	06c30034 	movhi	sp,3072
    ori sp, sp, %lo(__alt_stack_pointer)
 8000234:	dec00014 	ori	sp,sp,0
    movhi gp, %hi(_gp)
 8000238:	068200b4 	movhi	gp,2050
    ori gp, gp, %lo(_gp)
 800023c:	d68aa614 	ori	gp,gp,10904
 */
#ifndef ALT_SIM_OPTIMIZE
    /* Log that the BSS is about to be cleared. */
    ALT_LOG_PUTS(alt_log_msg_bss)

    movhi r2, %hi(__bss_start)
 8000240:	00820074 	movhi	r2,2049
    ori r2, r2, %lo(__bss_start)
 8000244:	10b18b14 	ori	r2,r2,50732

    movhi r3, %hi(__bss_end)
 8000248:	00c20074 	movhi	r3,2049
    ori r3, r3, %lo(__bss_end)
 800024c:	18f24814 	ori	r3,r3,51488

    beq r2, r3, 1f
 8000250:	10c00326 	beq	r2,r3,8000260 <_start+0x30>

0:
    stw zero, (r2)
 8000254:	10000015 	stw	zero,0(r2)
    addi r2, r2, 4
 8000258:	10800104 	addi	r2,r2,4
    bltu r2, r3, 0b
 800025c:	10fffd36 	bltu	r2,r3,8000254 <__alt_data_end+0xfc000254>
     * section aren't defined until alt_load() has been called).
     */
    mov   et, zero
#endif

    call alt_load
 8000260:	80161fc0 	call	80161fc <alt_load>

    /* Log that alt_main is about to be called. */
    ALT_LOG_PUTS(alt_log_msg_alt_main)

    /* Call the C entry point. It should never return. */
    call alt_main
 8000264:	80163980 	call	8016398 <alt_main>

08000268 <alt_after_alt_main>:

    /* Wait in infinite loop in case alt_main does return. */
alt_after_alt_main:
    br alt_after_alt_main
 8000268:	003fff06 	br	8000268 <__alt_data_end+0xfc000268>

0800026c <initGame>:
} state;

static state st;

void initGame()
{
 800026c:	defffd04 	addi	sp,sp,-12
 8000270:	dfc00215 	stw	ra,8(sp)
 8000274:	df000115 	stw	fp,4(sp)
 8000278:	df000104 	addi	fp,sp,4
	/* Initialize pawn row and empty rows */
	for(int i = 0; i < 8; i++)
 800027c:	e03fff15 	stw	zero,-4(fp)
 8000280:	00002606 	br	800031c <initGame+0xb0>
	{
		vga_ctrl->SQUARES[1 * 8 + i] = 0x0;
 8000284:	d0e00017 	ldw	r3,-32768(gp)
 8000288:	e0bfff17 	ldw	r2,-4(fp)
 800028c:	10800204 	addi	r2,r2,8
 8000290:	1885883a 	add	r2,r3,r2
 8000294:	10000005 	stb	zero,0(r2)
		vga_ctrl->SQUARES[2 * 8 + i] = 0xc;
 8000298:	d0e00017 	ldw	r3,-32768(gp)
 800029c:	e0bfff17 	ldw	r2,-4(fp)
 80002a0:	10800404 	addi	r2,r2,16
 80002a4:	1885883a 	add	r2,r3,r2
 80002a8:	00c00304 	movi	r3,12
 80002ac:	10c00005 	stb	r3,0(r2)
		vga_ctrl->SQUARES[3 * 8 + i] = 0xc;
 80002b0:	d0e00017 	ldw	r3,-32768(gp)
 80002b4:	e0bfff17 	ldw	r2,-4(fp)
 80002b8:	10800604 	addi	r2,r2,24
 80002bc:	1885883a 	add	r2,r3,r2
 80002c0:	00c00304 	movi	r3,12
 80002c4:	10c00005 	stb	r3,0(r2)
		vga_ctrl->SQUARES[4 * 8 + i] = 0xc;
 80002c8:	d0e00017 	ldw	r3,-32768(gp)
 80002cc:	e0bfff17 	ldw	r2,-4(fp)
 80002d0:	10800804 	addi	r2,r2,32
 80002d4:	1885883a 	add	r2,r3,r2
 80002d8:	00c00304 	movi	r3,12
 80002dc:	10c00005 	stb	r3,0(r2)
		vga_ctrl->SQUARES[5 * 8 + i] = 0xc;
 80002e0:	d0e00017 	ldw	r3,-32768(gp)
 80002e4:	e0bfff17 	ldw	r2,-4(fp)
 80002e8:	10800a04 	addi	r2,r2,40
 80002ec:	1885883a 	add	r2,r3,r2
 80002f0:	00c00304 	movi	r3,12
 80002f4:	10c00005 	stb	r3,0(r2)
		vga_ctrl->SQUARES[6 * 8 + i] = 0x1;
 80002f8:	d0e00017 	ldw	r3,-32768(gp)
 80002fc:	e0bfff17 	ldw	r2,-4(fp)
 8000300:	10800c04 	addi	r2,r2,48
 8000304:	1885883a 	add	r2,r3,r2
 8000308:	00c00044 	movi	r3,1
 800030c:	10c00005 	stb	r3,0(r2)
static state st;

void initGame()
{
	/* Initialize pawn row and empty rows */
	for(int i = 0; i < 8; i++)
 8000310:	e0bfff17 	ldw	r2,-4(fp)
 8000314:	10800044 	addi	r2,r2,1
 8000318:	e0bfff15 	stw	r2,-4(fp)
 800031c:	e0bfff17 	ldw	r2,-4(fp)
 8000320:	10800210 	cmplti	r2,r2,8
 8000324:	103fd71e 	bne	r2,zero,8000284 <__alt_data_end+0xfc000284>
		vga_ctrl->SQUARES[5 * 8 + i] = 0xc;
		vga_ctrl->SQUARES[6 * 8 + i] = 0x1;
	}

	/* Initialize row 0 */
    vga_ctrl->SQUARES[0 * 8 + 0] = 0x6;
 8000328:	d0a00017 	ldw	r2,-32768(gp)
 800032c:	00c00184 	movi	r3,6
 8000330:	10c00005 	stb	r3,0(r2)
	vga_ctrl->SQUARES[0 * 8 + 1] = 0x4;
 8000334:	d0a00017 	ldw	r2,-32768(gp)
 8000338:	00c00104 	movi	r3,4
 800033c:	10c00045 	stb	r3,1(r2)
	vga_ctrl->SQUARES[0 * 8 + 2] = 0x2;
 8000340:	d0a00017 	ldw	r2,-32768(gp)
 8000344:	00c00084 	movi	r3,2
 8000348:	10c00085 	stb	r3,2(r2)
	vga_ctrl->SQUARES[0 * 8 + 3] = 0x8;
 800034c:	d0a00017 	ldw	r2,-32768(gp)
 8000350:	00c00204 	movi	r3,8
 8000354:	10c000c5 	stb	r3,3(r2)
	vga_ctrl->SQUARES[0 * 8 + 4] = 0xa;
 8000358:	d0a00017 	ldw	r2,-32768(gp)
 800035c:	00c00284 	movi	r3,10
 8000360:	10c00105 	stb	r3,4(r2)
	vga_ctrl->SQUARES[0 * 8 + 5] = 0x2;
 8000364:	d0a00017 	ldw	r2,-32768(gp)
 8000368:	00c00084 	movi	r3,2
 800036c:	10c00145 	stb	r3,5(r2)
	vga_ctrl->SQUARES[0 * 8 + 6] = 0x4;
 8000370:	d0a00017 	ldw	r2,-32768(gp)
 8000374:	00c00104 	movi	r3,4
 8000378:	10c00185 	stb	r3,6(r2)
	vga_ctrl->SQUARES[0 * 8 + 7] = 0x6;
 800037c:	d0a00017 	ldw	r2,-32768(gp)
 8000380:	00c00184 	movi	r3,6
 8000384:	10c001c5 	stb	r3,7(r2)

	/* Initialize row 7 */
    vga_ctrl->SQUARES[7 * 8 + 0] = 0x7;
 8000388:	d0a00017 	ldw	r2,-32768(gp)
 800038c:	00c001c4 	movi	r3,7
 8000390:	10c00e05 	stb	r3,56(r2)
	vga_ctrl->SQUARES[7 * 8 + 1] = 0x5;
 8000394:	d0a00017 	ldw	r2,-32768(gp)
 8000398:	00c00144 	movi	r3,5
 800039c:	10c00e45 	stb	r3,57(r2)
	vga_ctrl->SQUARES[7 * 8 + 2] = 0x3;
 80003a0:	d0a00017 	ldw	r2,-32768(gp)
 80003a4:	00c000c4 	movi	r3,3
 80003a8:	10c00e85 	stb	r3,58(r2)
	vga_ctrl->SQUARES[7 * 8 + 3] = 0x9;
 80003ac:	d0a00017 	ldw	r2,-32768(gp)
 80003b0:	00c00244 	movi	r3,9
 80003b4:	10c00ec5 	stb	r3,59(r2)
	vga_ctrl->SQUARES[7 * 8 + 4] = 0xb;
 80003b8:	d0a00017 	ldw	r2,-32768(gp)
 80003bc:	00c002c4 	movi	r3,11
 80003c0:	10c00f05 	stb	r3,60(r2)
	vga_ctrl->SQUARES[7 * 8 + 5] = 0x3;
 80003c4:	d0a00017 	ldw	r2,-32768(gp)
 80003c8:	00c000c4 	movi	r3,3
 80003cc:	10c00f45 	stb	r3,61(r2)
	vga_ctrl->SQUARES[7 * 8 + 6] = 0x5;
 80003d0:	d0a00017 	ldw	r2,-32768(gp)
 80003d4:	00c00144 	movi	r3,5
 80003d8:	10c00f85 	stb	r3,62(r2)
	vga_ctrl->SQUARES[7 * 8 + 7] = 0x7;
 80003dc:	d0a00017 	ldw	r2,-32768(gp)
 80003e0:	00c001c4 	movi	r3,7
 80003e4:	10c00fc5 	stb	r3,63(r2)

	/* Intialize the FSM used for mouse click processing */
	st = START;
 80003e8:	00800044 	movi	r2,1
 80003ec:	d0a6e715 	stw	r2,-25700(gp)
	player_turn = WHITE;
 80003f0:	00800044 	movi	r2,1
 80003f4:	d0a6e685 	stb	r2,-25702(gp)
	/* Game has not ended */
	vga_ctrl->end_game = 0;
 80003f8:	d0a00017 	ldw	r2,-32768(gp)
 80003fc:	10001205 	stb	zero,72(r2)
	castling_status = NO_CASTLE;
 8000400:	d026e6c5 	stb	zero,-25701(gp)
	clearHighlight();
 8000404:	80063f40 	call	80063f4 <clearHighlight>
	W_kingX = 4;
 8000408:	00800104 	movi	r2,4
 800040c:	d0a6e585 	stb	r2,-25706(gp)
	W_kingY = 7;
 8000410:	008001c4 	movi	r2,7
 8000414:	d0a6e5c5 	stb	r2,-25705(gp)
	B_kingX = 4;
 8000418:	00800104 	movi	r2,4
 800041c:	d0a6e605 	stb	r2,-25704(gp)
	B_kingY = 0;
 8000420:	d026e645 	stb	zero,-25703(gp)
	in_check = 0;
 8000424:	d026e50d 	sth	zero,-25708(gp)

	// Clear LEDs
	clearLED(0);
 8000428:	0009883a 	mov	r4,zero
 800042c:	80067b80 	call	80067b8 <clearLED>
	clearLED(1);
 8000430:	01000044 	movi	r4,1
 8000434:	80067b80 	call	80067b8 <clearLED>
	clearLED(2);
 8000438:	01000084 	movi	r4,2
 800043c:	80067b80 	call	80067b8 <clearLED>
	clearLED(3);
 8000440:	010000c4 	movi	r4,3
 8000444:	80067b80 	call	80067b8 <clearLED>

}
 8000448:	0001883a 	nop
 800044c:	e037883a 	mov	sp,fp
 8000450:	dfc00117 	ldw	ra,4(sp)
 8000454:	df000017 	ldw	fp,0(sp)
 8000458:	dec00204 	addi	sp,sp,8
 800045c:	f800283a 	ret

08000460 <processMouseClick>:

void processMouseClick(alt_u8 button)
{
 8000460:	defffa04 	addi	sp,sp,-24
 8000464:	dfc00515 	stw	ra,20(sp)
 8000468:	df000415 	stw	fp,16(sp)
 800046c:	dc800315 	stw	r18,12(sp)
 8000470:	dc400215 	stw	r17,8(sp)
 8000474:	dc000115 	stw	r16,4(sp)
 8000478:	df000404 	addi	fp,sp,16
 800047c:	2005883a 	mov	r2,r4
 8000480:	e0bffc05 	stb	r2,-16(fp)
	// printf("selectedX: %d, ", selectedX);
	// printf("selectedY: %d\n", selectedY);
	// printf("state: %d\n", st);

	// Reset Game
	if(button == SCROLL)
 8000484:	e0bffc03 	ldbu	r2,-16(fp)
 8000488:	10800118 	cmpnei	r2,r2,4
 800048c:	1000021e 	bne	r2,zero,8000498 <processMouseClick+0x38>
	{
		initGame();
 8000490:	800026c0 	call	800026c <initGame>
			default:
				break;
		}
	}
	
}
 8000494:	00010106 	br	800089c <processMouseClick+0x43c>
	{
		initGame();
	}
	else
	{
		switch(st)
 8000498:	d0a6e717 	ldw	r2,-25700(gp)
 800049c:	10c001e8 	cmpgeui	r3,r2,7
 80004a0:	1800f11e 	bne	r3,zero,8000868 <processMouseClick+0x408>
 80004a4:	100690ba 	slli	r3,r2,2
 80004a8:	00820034 	movhi	r2,2048
 80004ac:	10812f04 	addi	r2,r2,1212
 80004b0:	1885883a 	add	r2,r3,r2
 80004b4:	10800017 	ldw	r2,0(r2)
 80004b8:	1000683a 	jmp	r2
 80004bc:	080004d8 	cmpnei	zero,at,19
 80004c0:	08000500 	call	800050 <__alt_mem_onchip_memory2_0+0x800050>
 80004c4:	080005ac 	andhi	zero,at,22
 80004c8:	080005c0 	call	80005c <__alt_mem_onchip_memory2_0+0x80005c>
 80004cc:	080007d0 	cmplti	zero,at,31
 80004d0:	080007e4 	muli	zero,at,31
 80004d4:	08000804 	addi	zero,at,32
		{
			case DESELECT:
				if(button == NO_PRESS)
 80004d8:	e0bffc03 	ldbu	r2,-16(fp)
 80004dc:	1000e41e 	bne	r2,zero,8000870 <processMouseClick+0x410>
				{
					st = START;
 80004e0:	00800044 	movi	r2,1
 80004e4:	d0a6e715 	stw	r2,-25700(gp)
					selectedX = NOT_SELECTED;
 80004e8:	00bfffc4 	movi	r2,-1
 80004ec:	d0a00105 	stb	r2,-32764(gp)
					selectedY = NOT_SELECTED;
 80004f0:	00bfffc4 	movi	r2,-1
 80004f4:	d0a00145 	stb	r2,-32763(gp)
					clearHighlight();
 80004f8:	80063f40 	call	80063f4 <clearHighlight>
				}
				break;
 80004fc:	0000dc06 	br	8000870 <processMouseClick+0x410>
			case START:
				if(button == LEFT_CLICK)
 8000500:	e0bffc03 	ldbu	r2,-16(fp)
 8000504:	10800058 	cmpnei	r2,r2,1
 8000508:	1000db1e 	bne	r2,zero,8000878 <processMouseClick+0x418>
				{
					if ((vga_ctrl->x_pos >= 0 && vga_ctrl->x_pos < 480) && 
 800050c:	d0a00017 	ldw	r2,-32768(gp)
 8000510:	1080110b 	ldhu	r2,68(r2)
 8000514:	d0a00017 	ldw	r2,-32768(gp)
 8000518:	1080110b 	ldhu	r2,68(r2)
 800051c:	10bfffcc 	andi	r2,r2,65535
 8000520:	10807828 	cmpgeui	r2,r2,480
 8000524:	1000d41e 	bne	r2,zero,8000878 <processMouseClick+0x418>
						(vga_ctrl->y_pos >= 0 && vga_ctrl->y_pos < 480)) 
 8000528:	d0a00017 	ldw	r2,-32768(gp)
 800052c:	1080118b 	ldhu	r2,70(r2)
 8000530:	d0a00017 	ldw	r2,-32768(gp)
 8000534:	1080118b 	ldhu	r2,70(r2)
 8000538:	10bfffcc 	andi	r2,r2,65535
 800053c:	10807828 	cmpgeui	r2,r2,480
 8000540:	1000cd1e 	bne	r2,zero,8000878 <processMouseClick+0x418>
					{
						selectedX = vga_ctrl->x_pos / 60;
 8000544:	d0a00017 	ldw	r2,-32768(gp)
 8000548:	1080110b 	ldhu	r2,68(r2)
 800054c:	10bfffcc 	andi	r2,r2,65535
 8000550:	01400f04 	movi	r5,60
 8000554:	1009883a 	mov	r4,r2
 8000558:	8008ea80 	call	8008ea8 <__udivsi3>
 800055c:	d0a00105 	stb	r2,-32764(gp)
						selectedY = vga_ctrl->y_pos / 60;
 8000560:	d0a00017 	ldw	r2,-32768(gp)
 8000564:	1080118b 	ldhu	r2,70(r2)
 8000568:	10bfffcc 	andi	r2,r2,65535
 800056c:	01400f04 	movi	r5,60
 8000570:	1009883a 	mov	r4,r2
 8000574:	8008ea80 	call	8008ea8 <__udivsi3>
 8000578:	d0a00145 	stb	r2,-32763(gp)
						if(checkMove(selectedY, selectedX) != 0)
 800057c:	d0a00143 	ldbu	r2,-32763(gp)
 8000580:	10803fcc 	andi	r2,r2,255
 8000584:	d0e00103 	ldbu	r3,-32764(gp)
 8000588:	18c03fcc 	andi	r3,r3,255
 800058c:	180b883a 	mov	r5,r3
 8000590:	1009883a 	mov	r4,r2
 8000594:	80008c00 	call	80008c0 <checkMove>
 8000598:	10803fcc 	andi	r2,r2,255
 800059c:	1000b626 	beq	r2,zero,8000878 <processMouseClick+0x418>
						{
							st = INIT_POS_DOWN;
 80005a0:	00800084 	movi	r2,2
 80005a4:	d0a6e715 	stw	r2,-25700(gp)
						}	
					}
				}
				break;
 80005a8:	0000b306 	br	8000878 <processMouseClick+0x418>
			case INIT_POS_DOWN:
				if(button == NO_PRESS)
 80005ac:	e0bffc03 	ldbu	r2,-16(fp)
 80005b0:	1000b31e 	bne	r2,zero,8000880 <processMouseClick+0x420>
				{
					st = INIT_POS_UP;
 80005b4:	008000c4 	movi	r2,3
 80005b8:	d0a6e715 	stw	r2,-25700(gp)
				}
				break;
 80005bc:	0000b006 	br	8000880 <processMouseClick+0x420>
			case INIT_POS_UP:
				if(button == LEFT_CLICK)
 80005c0:	e0bffc03 	ldbu	r2,-16(fp)
 80005c4:	10800058 	cmpnei	r2,r2,1
 80005c8:	1000af1e 	bne	r2,zero,8000888 <processMouseClick+0x428>
				{
					// check if the player intends to deselect the selected chess piece by clicking on it
					if((selectedX == vga_ctrl->x_pos / 60) && (selectedY == vga_ctrl->y_pos / 60))
 80005cc:	d0a00103 	ldbu	r2,-32764(gp)
 80005d0:	14003fcc 	andi	r16,r2,255
 80005d4:	d0a00017 	ldw	r2,-32768(gp)
 80005d8:	1080110b 	ldhu	r2,68(r2)
 80005dc:	10bfffcc 	andi	r2,r2,65535
 80005e0:	01400f04 	movi	r5,60
 80005e4:	1009883a 	mov	r4,r2
 80005e8:	8008ea80 	call	8008ea8 <__udivsi3>
 80005ec:	80ffffcc 	andi	r3,r16,65535
 80005f0:	10bfffcc 	andi	r2,r2,65535
 80005f4:	18800d1e 	bne	r3,r2,800062c <processMouseClick+0x1cc>
 80005f8:	d0a00143 	ldbu	r2,-32763(gp)
 80005fc:	14003fcc 	andi	r16,r2,255
 8000600:	d0a00017 	ldw	r2,-32768(gp)
 8000604:	1080118b 	ldhu	r2,70(r2)
 8000608:	10bfffcc 	andi	r2,r2,65535
 800060c:	01400f04 	movi	r5,60
 8000610:	1009883a 	mov	r4,r2
 8000614:	8008ea80 	call	8008ea8 <__udivsi3>
 8000618:	80ffffcc 	andi	r3,r16,65535
 800061c:	10bfffcc 	andi	r2,r2,65535
 8000620:	1880021e 	bne	r3,r2,800062c <processMouseClick+0x1cc>
					{
						st = DESELECT;
 8000624:	d026e715 	stw	zero,-25700(gp)
						}
						st = FINAL_POS_DOWN;
							
					}
				}
				break;
 8000628:	00009706 	br	8000888 <processMouseClick+0x428>
					// check if the player intends to deselect the selected chess piece by clicking on it
					if((selectedX == vga_ctrl->x_pos / 60) && (selectedY == vga_ctrl->y_pos / 60))
					{
						st = DESELECT;
					}
					else if ((vga_ctrl->x_pos >= 0 && vga_ctrl->x_pos < 480) && 
 800062c:	d0a00017 	ldw	r2,-32768(gp)
 8000630:	1080110b 	ldhu	r2,68(r2)
 8000634:	d0a00017 	ldw	r2,-32768(gp)
 8000638:	1080110b 	ldhu	r2,68(r2)
 800063c:	10bfffcc 	andi	r2,r2,65535
 8000640:	10807828 	cmpgeui	r2,r2,480
 8000644:	1000901e 	bne	r2,zero,8000888 <processMouseClick+0x428>
							(vga_ctrl->y_pos >= 0 && vga_ctrl->y_pos < 480)) 
 8000648:	d0a00017 	ldw	r2,-32768(gp)
 800064c:	1080118b 	ldhu	r2,70(r2)
 8000650:	d0a00017 	ldw	r2,-32768(gp)
 8000654:	1080118b 	ldhu	r2,70(r2)
 8000658:	10bfffcc 	andi	r2,r2,65535
 800065c:	10807828 	cmpgeui	r2,r2,480
 8000660:	1000891e 	bne	r2,zero,8000888 <processMouseClick+0x428>
					{	
						if(makeMove(selectedY, selectedX, vga_ctrl->y_pos / 60, vga_ctrl->x_pos / 60) != 0)
 8000664:	d0a00143 	ldbu	r2,-32763(gp)
 8000668:	14003fcc 	andi	r16,r2,255
 800066c:	d0a00103 	ldbu	r2,-32764(gp)
 8000670:	14403fcc 	andi	r17,r2,255
 8000674:	d0a00017 	ldw	r2,-32768(gp)
 8000678:	1080118b 	ldhu	r2,70(r2)
 800067c:	10bfffcc 	andi	r2,r2,65535
 8000680:	01400f04 	movi	r5,60
 8000684:	1009883a 	mov	r4,r2
 8000688:	8008ea80 	call	8008ea8 <__udivsi3>
 800068c:	14803fcc 	andi	r18,r2,255
 8000690:	d0a00017 	ldw	r2,-32768(gp)
 8000694:	1080110b 	ldhu	r2,68(r2)
 8000698:	10bfffcc 	andi	r2,r2,65535
 800069c:	01400f04 	movi	r5,60
 80006a0:	1009883a 	mov	r4,r2
 80006a4:	8008ea80 	call	8008ea8 <__udivsi3>
 80006a8:	10803fcc 	andi	r2,r2,255
 80006ac:	100f883a 	mov	r7,r2
 80006b0:	900d883a 	mov	r6,r18
 80006b4:	880b883a 	mov	r5,r17
 80006b8:	8009883a 	mov	r4,r16
 80006bc:	80031880 	call	8003188 <makeMove>
 80006c0:	10803fcc 	andi	r2,r2,255
 80006c4:	10003f26 	beq	r2,zero,80007c4 <processMouseClick+0x364>
						{
							// Only update player turn if legal move is made.
							player_turn ^= 1;
 80006c8:	d0a6e683 	ldbu	r2,-25702(gp)
 80006cc:	1080005c 	xori	r2,r2,1
 80006d0:	d0a6e685 	stb	r2,-25702(gp)

							if (player_turn == BLACK) {
 80006d4:	d0a6e683 	ldbu	r2,-25702(gp)
 80006d8:	10803fcc 	andi	r2,r2,255
 80006dc:	1000091e 	bne	r2,zero,8000704 <processMouseClick+0x2a4>
								in_check = inCheck(B_kingY, B_kingX);
 80006e0:	d0a6e643 	ldbu	r2,-25703(gp)
 80006e4:	10803fcc 	andi	r2,r2,255
 80006e8:	d0e6e603 	ldbu	r3,-25704(gp)
 80006ec:	18c03fcc 	andi	r3,r3,255
 80006f0:	180b883a 	mov	r5,r3
 80006f4:	1009883a 	mov	r4,r2
 80006f8:	80035200 	call	8003520 <inCheck>
 80006fc:	d0a6e50d 	sth	r2,-25708(gp)
 8000700:	00000806 	br	8000724 <processMouseClick+0x2c4>
							} else {
								in_check = inCheck(W_kingY, W_kingX);
 8000704:	d0a6e5c3 	ldbu	r2,-25705(gp)
 8000708:	10803fcc 	andi	r2,r2,255
 800070c:	d0e6e583 	ldbu	r3,-25706(gp)
 8000710:	18c03fcc 	andi	r3,r3,255
 8000714:	180b883a 	mov	r5,r3
 8000718:	1009883a 	mov	r4,r2
 800071c:	80035200 	call	8003520 <inCheck>
 8000720:	d0a6e50d 	sth	r2,-25708(gp)
							}
							printf("inCheck: %d\n", in_check);
 8000724:	d0a6e50b 	ldhu	r2,-25708(gp)
 8000728:	10bfffcc 	andi	r2,r2,65535
 800072c:	100b883a 	mov	r5,r2
 8000730:	010200b4 	movhi	r4,2050
 8000734:	21226804 	addi	r4,r4,-30304
 8000738:	8008fbc0 	call	8008fbc <printf>
							if(in_check != 0)
 800073c:	d0a6e50b 	ldhu	r2,-25708(gp)
 8000740:	10bfffcc 	andi	r2,r2,65535
 8000744:	10000926 	beq	r2,zero,800076c <processMouseClick+0x30c>
							{
								setLED(0);
 8000748:	0009883a 	mov	r4,zero
 800074c:	80067740 	call	8006774 <setLED>
								setLED(1);
 8000750:	01000044 	movi	r4,1
 8000754:	80067740 	call	8006774 <setLED>
								setLED(2);
 8000758:	01000084 	movi	r4,2
 800075c:	80067740 	call	8006774 <setLED>
								setLED(3);
 8000760:	010000c4 	movi	r4,3
 8000764:	80067740 	call	8006774 <setLED>
 8000768:	00000806 	br	800078c <processMouseClick+0x32c>

							}
							else
							{
								clearLED(0);
 800076c:	0009883a 	mov	r4,zero
 8000770:	80067b80 	call	80067b8 <clearLED>
								clearLED(1);
 8000774:	01000044 	movi	r4,1
 8000778:	80067b80 	call	80067b8 <clearLED>
								clearLED(2);
 800077c:	01000084 	movi	r4,2
 8000780:	80067b80 	call	80067b8 <clearLED>
								clearLED(3);
 8000784:	010000c4 	movi	r4,3
 8000788:	80067b80 	call	80067b8 <clearLED>
							}

							if (checkMate(in_check) != 0) {
 800078c:	d0a6e50b 	ldhu	r2,-25708(gp)
 8000790:	10bfffcc 	andi	r2,r2,65535
 8000794:	1009883a 	mov	r4,r2
 8000798:	80047bc0 	call	80047bc <checkMate>
 800079c:	10803fcc 	andi	r2,r2,255
 80007a0:	10000826 	beq	r2,zero,80007c4 <processMouseClick+0x364>
								endGame(player_turn ^ 1);
 80007a4:	d0a6e683 	ldbu	r2,-25702(gp)
 80007a8:	1080005c 	xori	r2,r2,1
 80007ac:	10803fcc 	andi	r2,r2,255
 80007b0:	1009883a 	mov	r4,r2
 80007b4:	80064700 	call	8006470 <endGame>
								st = END_GAME;
 80007b8:	00800184 	movi	r2,6
 80007bc:	d0a6e715 	stw	r2,-25700(gp)
								break;
 80007c0:	00003606 	br	800089c <processMouseClick+0x43c>
							}
						}
						st = FINAL_POS_DOWN;
 80007c4:	00800104 	movi	r2,4
 80007c8:	d0a6e715 	stw	r2,-25700(gp)
							
					}
				}
				break;
 80007cc:	00002e06 	br	8000888 <processMouseClick+0x428>
			case FINAL_POS_DOWN:
				if(button == NO_PRESS)
 80007d0:	e0bffc03 	ldbu	r2,-16(fp)
 80007d4:	10002e1e 	bne	r2,zero,8000890 <processMouseClick+0x430>
				{
					st = FINAL_POS_UP;
 80007d8:	00800144 	movi	r2,5
 80007dc:	d0a6e715 	stw	r2,-25700(gp)
				}
				break;
 80007e0:	00002b06 	br	8000890 <processMouseClick+0x430>
			case FINAL_POS_UP:
				st = START;
 80007e4:	00800044 	movi	r2,1
 80007e8:	d0a6e715 	stw	r2,-25700(gp)
				selectedX = NOT_SELECTED;
 80007ec:	00bfffc4 	movi	r2,-1
 80007f0:	d0a00105 	stb	r2,-32764(gp)
				selectedY = NOT_SELECTED;
 80007f4:	00bfffc4 	movi	r2,-1
 80007f8:	d0a00145 	stb	r2,-32763(gp)
				clearHighlight();
 80007fc:	80063f40 	call	80063f4 <clearHighlight>
				break;
 8000800:	00002606 	br	800089c <processMouseClick+0x43c>
			
			case END_GAME:
				if(button == LEFT_CLICK)
 8000804:	e0bffc03 	ldbu	r2,-16(fp)
 8000808:	10800058 	cmpnei	r2,r2,1
 800080c:	1000221e 	bne	r2,zero,8000898 <processMouseClick+0x438>
				{
					if((vga_ctrl->x_pos >= 180 && vga_ctrl->x_pos < 300) && 
 8000810:	d0a00017 	ldw	r2,-32768(gp)
 8000814:	1080110b 	ldhu	r2,68(r2)
 8000818:	10bfffcc 	andi	r2,r2,65535
 800081c:	10802d30 	cmpltui	r2,r2,180
 8000820:	10001d1e 	bne	r2,zero,8000898 <processMouseClick+0x438>
 8000824:	d0a00017 	ldw	r2,-32768(gp)
 8000828:	1080110b 	ldhu	r2,68(r2)
 800082c:	10bfffcc 	andi	r2,r2,65535
 8000830:	10804b28 	cmpgeui	r2,r2,300
 8000834:	1000181e 	bne	r2,zero,8000898 <processMouseClick+0x438>
					(vga_ctrl->y_pos >= 240 && vga_ctrl->y_pos < 270))
 8000838:	d0a00017 	ldw	r2,-32768(gp)
 800083c:	1080118b 	ldhu	r2,70(r2)
				break;
			
			case END_GAME:
				if(button == LEFT_CLICK)
				{
					if((vga_ctrl->x_pos >= 180 && vga_ctrl->x_pos < 300) && 
 8000840:	10bfffcc 	andi	r2,r2,65535
 8000844:	10803c30 	cmpltui	r2,r2,240
 8000848:	1000131e 	bne	r2,zero,8000898 <processMouseClick+0x438>
					(vga_ctrl->y_pos >= 240 && vga_ctrl->y_pos < 270))
 800084c:	d0a00017 	ldw	r2,-32768(gp)
 8000850:	1080118b 	ldhu	r2,70(r2)
 8000854:	10bfffcc 	andi	r2,r2,65535
 8000858:	108043a8 	cmpgeui	r2,r2,270
 800085c:	10000e1e 	bne	r2,zero,8000898 <processMouseClick+0x438>
					{
						initGame();
 8000860:	800026c0 	call	800026c <initGame>
					}
				}
				break;
 8000864:	00000c06 	br	8000898 <processMouseClick+0x438>
			default:
				break;
 8000868:	0001883a 	nop
 800086c:	00000b06 	br	800089c <processMouseClick+0x43c>
					st = START;
					selectedX = NOT_SELECTED;
					selectedY = NOT_SELECTED;
					clearHighlight();
				}
				break;
 8000870:	0001883a 	nop
 8000874:	00000906 	br	800089c <processMouseClick+0x43c>
						{
							st = INIT_POS_DOWN;
						}	
					}
				}
				break;
 8000878:	0001883a 	nop
 800087c:	00000706 	br	800089c <processMouseClick+0x43c>
			case INIT_POS_DOWN:
				if(button == NO_PRESS)
				{
					st = INIT_POS_UP;
				}
				break;
 8000880:	0001883a 	nop
 8000884:	00000506 	br	800089c <processMouseClick+0x43c>
						}
						st = FINAL_POS_DOWN;
							
					}
				}
				break;
 8000888:	0001883a 	nop
 800088c:	00000306 	br	800089c <processMouseClick+0x43c>
			case FINAL_POS_DOWN:
				if(button == NO_PRESS)
				{
					st = FINAL_POS_UP;
				}
				break;
 8000890:	0001883a 	nop
 8000894:	00000106 	br	800089c <processMouseClick+0x43c>
					(vga_ctrl->y_pos >= 240 && vga_ctrl->y_pos < 270))
					{
						initGame();
					}
				}
				break;
 8000898:	0001883a 	nop
			default:
				break;
		}
	}
	
}
 800089c:	0001883a 	nop
 80008a0:	e6fffd04 	addi	sp,fp,-12
 80008a4:	dfc00417 	ldw	ra,16(sp)
 80008a8:	df000317 	ldw	fp,12(sp)
 80008ac:	dc800217 	ldw	r18,8(sp)
 80008b0:	dc400117 	ldw	r17,4(sp)
 80008b4:	dc000017 	ldw	r16,0(sp)
 80008b8:	dec00504 	addi	sp,sp,20
 80008bc:	f800283a 	ret

080008c0 <checkMove>:

alt_u8 checkMove(alt_u8 initRow, alt_u8 initCol) 
{
 80008c0:	defff904 	addi	sp,sp,-28
 80008c4:	dfc00615 	stw	ra,24(sp)
 80008c8:	df000515 	stw	fp,20(sp)
 80008cc:	df000504 	addi	fp,sp,20
 80008d0:	2007883a 	mov	r3,r4
 80008d4:	2805883a 	mov	r2,r5
 80008d8:	e0fffe05 	stb	r3,-8(fp)
 80008dc:	e0bfff05 	stb	r2,-4(fp)
	alt_u8 piece = vga_ctrl->SQUARES[initRow * 8 + initCol];
 80008e0:	d0e00017 	ldw	r3,-32768(gp)
 80008e4:	e0bffe03 	ldbu	r2,-8(fp)
 80008e8:	100890fa 	slli	r4,r2,3
 80008ec:	e0bfff03 	ldbu	r2,-4(fp)
 80008f0:	2085883a 	add	r2,r4,r2
 80008f4:	1885883a 	add	r2,r3,r2
 80008f8:	10800003 	ldbu	r2,0(r2)
 80008fc:	e0bffd45 	stb	r2,-11(fp)
	alt_u8 color = piece & 1;
 8000900:	e0bffd43 	ldbu	r2,-11(fp)
 8000904:	1080004c 	andi	r2,r2,1
 8000908:	e0bffd85 	stb	r2,-10(fp)
	alt_u8 pieceType = (piece >> 1) & 7;
 800090c:	e0bffd43 	ldbu	r2,-11(fp)
 8000910:	1004d07a 	srli	r2,r2,1
 8000914:	108001cc 	andi	r2,r2,7
 8000918:	e0bffdc5 	stb	r2,-9(fp)

	/* Check empty square */
	if(piece == EMPTY_SQUARE)
 800091c:	e0bffd43 	ldbu	r2,-11(fp)
 8000920:	10800318 	cmpnei	r2,r2,12
 8000924:	1000021e 	bne	r2,zero,8000930 <checkMove+0x70>
	{
		return 0;
 8000928:	0005883a 	mov	r2,zero
 800092c:	000a1106 	br	8003174 <checkMove+0x28b4>
	}
	
	if (color != player_turn) {
 8000930:	d0a6e683 	ldbu	r2,-25702(gp)
 8000934:	e0fffd83 	ldbu	r3,-10(fp)
 8000938:	10803fcc 	andi	r2,r2,255
 800093c:	18800226 	beq	r3,r2,8000948 <checkMove+0x88>
		return 0;
 8000940:	0005883a 	mov	r2,zero
 8000944:	000a0b06 	br	8003174 <checkMove+0x28b4>
	}

	// Variables used in switch
	int r, c;
	alt_u8 nPlaces = 0;
 8000948:	e03ffd05 	stb	zero,-12(fp)
	switch (pieceType) {
 800094c:	e0bffdc3 	ldbu	r2,-9(fp)
 8000950:	10c001a8 	cmpgeui	r3,r2,6
 8000954:	1809f21e 	bne	r3,zero,8003120 <checkMove+0x2860>
 8000958:	100690ba 	slli	r3,r2,2
 800095c:	00820034 	movhi	r2,2048
 8000960:	10825c04 	addi	r2,r2,2416
 8000964:	1885883a 	add	r2,r3,r2
 8000968:	10800017 	ldw	r2,0(r2)
 800096c:	1000683a 	jmp	r2
 8000970:	08000988 	cmpgei	zero,at,38
 8000974:	08001718 	cmpnei	zero,at,92
 8000978:	08000ef0 	cmpltui	zero,at,59
 800097c:	08001cb0 	cmpltui	zero,at,114
 8000980:	080021e0 	cmpeqi	zero,at,135
 8000984:	08002ca0 	cmpeqi	zero,at,178
		case PAWN:
			if (color == WHITE) {
 8000988:	e0bffd83 	ldbu	r2,-10(fp)
 800098c:	10800058 	cmpnei	r2,r2,1
 8000990:	1000ab1e 	bne	r2,zero,8000c40 <checkMove+0x380>
				if (initRow != 0) {
 8000994:	e0bffe03 	ldbu	r2,-8(fp)
 8000998:	1009e626 	beq	r2,zero,8003134 <checkMove+0x2874>
					if (CHECK_SQUARE_EMPTY(initRow - 1, initCol)) {
 800099c:	d0e00017 	ldw	r3,-32768(gp)
 80009a0:	e0bffe03 	ldbu	r2,-8(fp)
 80009a4:	10bfffc4 	addi	r2,r2,-1
 80009a8:	100890fa 	slli	r4,r2,3
 80009ac:	e0bfff03 	ldbu	r2,-4(fp)
 80009b0:	2085883a 	add	r2,r4,r2
 80009b4:	1885883a 	add	r2,r3,r2
 80009b8:	10800003 	ldbu	r2,0(r2)
 80009bc:	10803fcc 	andi	r2,r2,255
 80009c0:	108003cc 	andi	r2,r2,15
 80009c4:	10800318 	cmpnei	r2,r2,12
 80009c8:	1000371e 	bne	r2,zero,8000aa8 <checkMove+0x1e8>
						HILITE(initRow - 1, initCol);
 80009cc:	d0e00017 	ldw	r3,-32768(gp)
 80009d0:	e0bffe03 	ldbu	r2,-8(fp)
 80009d4:	10bfffc4 	addi	r2,r2,-1
 80009d8:	100890fa 	slli	r4,r2,3
 80009dc:	e0bfff03 	ldbu	r2,-4(fp)
 80009e0:	2085883a 	add	r2,r4,r2
 80009e4:	d1600017 	ldw	r5,-32768(gp)
 80009e8:	e13ffe03 	ldbu	r4,-8(fp)
 80009ec:	213fffc4 	addi	r4,r4,-1
 80009f0:	200c90fa 	slli	r6,r4,3
 80009f4:	e13fff03 	ldbu	r4,-4(fp)
 80009f8:	3109883a 	add	r4,r6,r4
 80009fc:	2909883a 	add	r4,r5,r4
 8000a00:	21000003 	ldbu	r4,0(r4)
 8000a04:	21000414 	ori	r4,r4,16
 8000a08:	1885883a 	add	r2,r3,r2
 8000a0c:	11000005 	stb	r4,0(r2)
 8000a10:	e0bffd03 	ldbu	r2,-12(fp)
 8000a14:	10800044 	addi	r2,r2,1
 8000a18:	e0bffd05 	stb	r2,-12(fp)
						if (initRow == 6 && CHECK_SQUARE_EMPTY(initRow - 2, initCol))
 8000a1c:	e0bffe03 	ldbu	r2,-8(fp)
 8000a20:	10800198 	cmpnei	r2,r2,6
 8000a24:	1000201e 	bne	r2,zero,8000aa8 <checkMove+0x1e8>
 8000a28:	d0e00017 	ldw	r3,-32768(gp)
 8000a2c:	e0bffe03 	ldbu	r2,-8(fp)
 8000a30:	10bfff84 	addi	r2,r2,-2
 8000a34:	100890fa 	slli	r4,r2,3
 8000a38:	e0bfff03 	ldbu	r2,-4(fp)
 8000a3c:	2085883a 	add	r2,r4,r2
 8000a40:	1885883a 	add	r2,r3,r2
 8000a44:	10800003 	ldbu	r2,0(r2)
 8000a48:	10803fcc 	andi	r2,r2,255
 8000a4c:	108003cc 	andi	r2,r2,15
 8000a50:	10800318 	cmpnei	r2,r2,12
 8000a54:	1000141e 	bne	r2,zero,8000aa8 <checkMove+0x1e8>
						{
							HILITE(initRow - 2, initCol);
 8000a58:	d0e00017 	ldw	r3,-32768(gp)
 8000a5c:	e0bffe03 	ldbu	r2,-8(fp)
 8000a60:	10bfff84 	addi	r2,r2,-2
 8000a64:	100890fa 	slli	r4,r2,3
 8000a68:	e0bfff03 	ldbu	r2,-4(fp)
 8000a6c:	2085883a 	add	r2,r4,r2
 8000a70:	d1600017 	ldw	r5,-32768(gp)
 8000a74:	e13ffe03 	ldbu	r4,-8(fp)
 8000a78:	213fff84 	addi	r4,r4,-2
 8000a7c:	200c90fa 	slli	r6,r4,3
 8000a80:	e13fff03 	ldbu	r4,-4(fp)
 8000a84:	3109883a 	add	r4,r6,r4
 8000a88:	2909883a 	add	r4,r5,r4
 8000a8c:	21000003 	ldbu	r4,0(r4)
 8000a90:	21000414 	ori	r4,r4,16
 8000a94:	1885883a 	add	r2,r3,r2
 8000a98:	11000005 	stb	r4,0(r2)
 8000a9c:	e0bffd03 	ldbu	r2,-12(fp)
 8000aa0:	10800044 	addi	r2,r2,1
 8000aa4:	e0bffd05 	stb	r2,-12(fp)
						}
					}

					if (initCol != 0 && CHECK_SQUARE_ENEMY(initRow - 1, initCol - 1, color)) {
 8000aa8:	e0bfff03 	ldbu	r2,-4(fp)
 8000aac:	10003026 	beq	r2,zero,8000b70 <checkMove+0x2b0>
 8000ab0:	d0e00017 	ldw	r3,-32768(gp)
 8000ab4:	e0bffe03 	ldbu	r2,-8(fp)
 8000ab8:	10bfffc4 	addi	r2,r2,-1
 8000abc:	100890fa 	slli	r4,r2,3
 8000ac0:	e0bfff03 	ldbu	r2,-4(fp)
 8000ac4:	10bfffc4 	addi	r2,r2,-1
 8000ac8:	2085883a 	add	r2,r4,r2
 8000acc:	1885883a 	add	r2,r3,r2
 8000ad0:	10800003 	ldbu	r2,0(r2)
 8000ad4:	10803fcc 	andi	r2,r2,255
 8000ad8:	108003cc 	andi	r2,r2,15
 8000adc:	10800320 	cmpeqi	r2,r2,12
 8000ae0:	1000231e 	bne	r2,zero,8000b70 <checkMove+0x2b0>
 8000ae4:	d0e00017 	ldw	r3,-32768(gp)
 8000ae8:	e0bffe03 	ldbu	r2,-8(fp)
 8000aec:	10bfffc4 	addi	r2,r2,-1
 8000af0:	100890fa 	slli	r4,r2,3
 8000af4:	e0bfff03 	ldbu	r2,-4(fp)
 8000af8:	10bfffc4 	addi	r2,r2,-1
 8000afc:	2085883a 	add	r2,r4,r2
 8000b00:	1885883a 	add	r2,r3,r2
 8000b04:	10800003 	ldbu	r2,0(r2)
 8000b08:	10803fcc 	andi	r2,r2,255
 8000b0c:	10c0004c 	andi	r3,r2,1
 8000b10:	e0bffd83 	ldbu	r2,-10(fp)
 8000b14:	18801626 	beq	r3,r2,8000b70 <checkMove+0x2b0>
						HILITE(initRow - 1, initCol - 1);
 8000b18:	d0e00017 	ldw	r3,-32768(gp)
 8000b1c:	e0bffe03 	ldbu	r2,-8(fp)
 8000b20:	10bfffc4 	addi	r2,r2,-1
 8000b24:	100890fa 	slli	r4,r2,3
 8000b28:	e0bfff03 	ldbu	r2,-4(fp)
 8000b2c:	10bfffc4 	addi	r2,r2,-1
 8000b30:	2085883a 	add	r2,r4,r2
 8000b34:	d1600017 	ldw	r5,-32768(gp)
 8000b38:	e13ffe03 	ldbu	r4,-8(fp)
 8000b3c:	213fffc4 	addi	r4,r4,-1
 8000b40:	200c90fa 	slli	r6,r4,3
 8000b44:	e13fff03 	ldbu	r4,-4(fp)
 8000b48:	213fffc4 	addi	r4,r4,-1
 8000b4c:	3109883a 	add	r4,r6,r4
 8000b50:	2909883a 	add	r4,r5,r4
 8000b54:	21000003 	ldbu	r4,0(r4)
 8000b58:	21000414 	ori	r4,r4,16
 8000b5c:	1885883a 	add	r2,r3,r2
 8000b60:	11000005 	stb	r4,0(r2)
 8000b64:	e0bffd03 	ldbu	r2,-12(fp)
 8000b68:	10800044 	addi	r2,r2,1
 8000b6c:	e0bffd05 	stb	r2,-12(fp)
					}
					if (initCol != 7 && CHECK_SQUARE_ENEMY(initRow - 1, initCol + 1, color)) {
 8000b70:	e0bfff03 	ldbu	r2,-4(fp)
 8000b74:	108001e0 	cmpeqi	r2,r2,7
 8000b78:	10096e1e 	bne	r2,zero,8003134 <checkMove+0x2874>
 8000b7c:	d0e00017 	ldw	r3,-32768(gp)
 8000b80:	e0bffe03 	ldbu	r2,-8(fp)
 8000b84:	10bfffc4 	addi	r2,r2,-1
 8000b88:	100890fa 	slli	r4,r2,3
 8000b8c:	e0bfff03 	ldbu	r2,-4(fp)
 8000b90:	10800044 	addi	r2,r2,1
 8000b94:	2085883a 	add	r2,r4,r2
 8000b98:	1885883a 	add	r2,r3,r2
 8000b9c:	10800003 	ldbu	r2,0(r2)
 8000ba0:	10803fcc 	andi	r2,r2,255
 8000ba4:	108003cc 	andi	r2,r2,15
 8000ba8:	10800320 	cmpeqi	r2,r2,12
 8000bac:	1009611e 	bne	r2,zero,8003134 <checkMove+0x2874>
 8000bb0:	d0e00017 	ldw	r3,-32768(gp)
 8000bb4:	e0bffe03 	ldbu	r2,-8(fp)
 8000bb8:	10bfffc4 	addi	r2,r2,-1
 8000bbc:	100890fa 	slli	r4,r2,3
 8000bc0:	e0bfff03 	ldbu	r2,-4(fp)
 8000bc4:	10800044 	addi	r2,r2,1
 8000bc8:	2085883a 	add	r2,r4,r2
 8000bcc:	1885883a 	add	r2,r3,r2
 8000bd0:	10800003 	ldbu	r2,0(r2)
 8000bd4:	10803fcc 	andi	r2,r2,255
 8000bd8:	10c0004c 	andi	r3,r2,1
 8000bdc:	e0bffd83 	ldbu	r2,-10(fp)
 8000be0:	18895426 	beq	r3,r2,8003134 <checkMove+0x2874>
						HILITE(initRow - 1, initCol + 1);
 8000be4:	d0e00017 	ldw	r3,-32768(gp)
 8000be8:	e0bffe03 	ldbu	r2,-8(fp)
 8000bec:	10bfffc4 	addi	r2,r2,-1
 8000bf0:	100890fa 	slli	r4,r2,3
 8000bf4:	e0bfff03 	ldbu	r2,-4(fp)
 8000bf8:	10800044 	addi	r2,r2,1
 8000bfc:	2085883a 	add	r2,r4,r2
 8000c00:	d1600017 	ldw	r5,-32768(gp)
 8000c04:	e13ffe03 	ldbu	r4,-8(fp)
 8000c08:	213fffc4 	addi	r4,r4,-1
 8000c0c:	200c90fa 	slli	r6,r4,3
 8000c10:	e13fff03 	ldbu	r4,-4(fp)
 8000c14:	21000044 	addi	r4,r4,1
 8000c18:	3109883a 	add	r4,r6,r4
 8000c1c:	2909883a 	add	r4,r5,r4
 8000c20:	21000003 	ldbu	r4,0(r4)
 8000c24:	21000414 	ori	r4,r4,16
 8000c28:	1885883a 	add	r2,r3,r2
 8000c2c:	11000005 	stb	r4,0(r2)
 8000c30:	e0bffd03 	ldbu	r2,-12(fp)
 8000c34:	10800044 	addi	r2,r2,1
 8000c38:	e0bffd05 	stb	r2,-12(fp)
					if (initCol != 7 && CHECK_SQUARE_ENEMY(initRow + 1, initCol + 1, color)) {
						HILITE(initRow + 1, initCol + 1);
					}
				}
			}
			break;
 8000c3c:	00093d06 	br	8003134 <checkMove+0x2874>
						HILITE(initRow - 1, initCol + 1);
					}
				}

			} else {
				if (initRow != 7) {
 8000c40:	e0bffe03 	ldbu	r2,-8(fp)
 8000c44:	108001e0 	cmpeqi	r2,r2,7
 8000c48:	10093a1e 	bne	r2,zero,8003134 <checkMove+0x2874>
					if (CHECK_SQUARE_EMPTY(initRow + 1, initCol)) {
 8000c4c:	d0e00017 	ldw	r3,-32768(gp)
 8000c50:	e0bffe03 	ldbu	r2,-8(fp)
 8000c54:	10800044 	addi	r2,r2,1
 8000c58:	100890fa 	slli	r4,r2,3
 8000c5c:	e0bfff03 	ldbu	r2,-4(fp)
 8000c60:	2085883a 	add	r2,r4,r2
 8000c64:	1885883a 	add	r2,r3,r2
 8000c68:	10800003 	ldbu	r2,0(r2)
 8000c6c:	10803fcc 	andi	r2,r2,255
 8000c70:	108003cc 	andi	r2,r2,15
 8000c74:	10800318 	cmpnei	r2,r2,12
 8000c78:	1000371e 	bne	r2,zero,8000d58 <checkMove+0x498>
						HILITE(initRow + 1, initCol);
 8000c7c:	d0e00017 	ldw	r3,-32768(gp)
 8000c80:	e0bffe03 	ldbu	r2,-8(fp)
 8000c84:	10800044 	addi	r2,r2,1
 8000c88:	100890fa 	slli	r4,r2,3
 8000c8c:	e0bfff03 	ldbu	r2,-4(fp)
 8000c90:	2085883a 	add	r2,r4,r2
 8000c94:	d1600017 	ldw	r5,-32768(gp)
 8000c98:	e13ffe03 	ldbu	r4,-8(fp)
 8000c9c:	21000044 	addi	r4,r4,1
 8000ca0:	200c90fa 	slli	r6,r4,3
 8000ca4:	e13fff03 	ldbu	r4,-4(fp)
 8000ca8:	3109883a 	add	r4,r6,r4
 8000cac:	2909883a 	add	r4,r5,r4
 8000cb0:	21000003 	ldbu	r4,0(r4)
 8000cb4:	21000414 	ori	r4,r4,16
 8000cb8:	1885883a 	add	r2,r3,r2
 8000cbc:	11000005 	stb	r4,0(r2)
 8000cc0:	e0bffd03 	ldbu	r2,-12(fp)
 8000cc4:	10800044 	addi	r2,r2,1
 8000cc8:	e0bffd05 	stb	r2,-12(fp)
						if (initRow == 1 && CHECK_SQUARE_EMPTY(initRow + 2, initCol))
 8000ccc:	e0bffe03 	ldbu	r2,-8(fp)
 8000cd0:	10800058 	cmpnei	r2,r2,1
 8000cd4:	1000201e 	bne	r2,zero,8000d58 <checkMove+0x498>
 8000cd8:	d0e00017 	ldw	r3,-32768(gp)
 8000cdc:	e0bffe03 	ldbu	r2,-8(fp)
 8000ce0:	10800084 	addi	r2,r2,2
 8000ce4:	100890fa 	slli	r4,r2,3
 8000ce8:	e0bfff03 	ldbu	r2,-4(fp)
 8000cec:	2085883a 	add	r2,r4,r2
 8000cf0:	1885883a 	add	r2,r3,r2
 8000cf4:	10800003 	ldbu	r2,0(r2)
 8000cf8:	10803fcc 	andi	r2,r2,255
 8000cfc:	108003cc 	andi	r2,r2,15
 8000d00:	10800318 	cmpnei	r2,r2,12
 8000d04:	1000141e 	bne	r2,zero,8000d58 <checkMove+0x498>
						{
							HILITE(initRow + 2, initCol);
 8000d08:	d0e00017 	ldw	r3,-32768(gp)
 8000d0c:	e0bffe03 	ldbu	r2,-8(fp)
 8000d10:	10800084 	addi	r2,r2,2
 8000d14:	100890fa 	slli	r4,r2,3
 8000d18:	e0bfff03 	ldbu	r2,-4(fp)
 8000d1c:	2085883a 	add	r2,r4,r2
 8000d20:	d1600017 	ldw	r5,-32768(gp)
 8000d24:	e13ffe03 	ldbu	r4,-8(fp)
 8000d28:	21000084 	addi	r4,r4,2
 8000d2c:	200c90fa 	slli	r6,r4,3
 8000d30:	e13fff03 	ldbu	r4,-4(fp)
 8000d34:	3109883a 	add	r4,r6,r4
 8000d38:	2909883a 	add	r4,r5,r4
 8000d3c:	21000003 	ldbu	r4,0(r4)
 8000d40:	21000414 	ori	r4,r4,16
 8000d44:	1885883a 	add	r2,r3,r2
 8000d48:	11000005 	stb	r4,0(r2)
 8000d4c:	e0bffd03 	ldbu	r2,-12(fp)
 8000d50:	10800044 	addi	r2,r2,1
 8000d54:	e0bffd05 	stb	r2,-12(fp)
						}
					}

					if (initCol != 0 && CHECK_SQUARE_ENEMY(initRow + 1, initCol - 1, color)) {
 8000d58:	e0bfff03 	ldbu	r2,-4(fp)
 8000d5c:	10003026 	beq	r2,zero,8000e20 <checkMove+0x560>
 8000d60:	d0e00017 	ldw	r3,-32768(gp)
 8000d64:	e0bffe03 	ldbu	r2,-8(fp)
 8000d68:	10800044 	addi	r2,r2,1
 8000d6c:	100890fa 	slli	r4,r2,3
 8000d70:	e0bfff03 	ldbu	r2,-4(fp)
 8000d74:	10bfffc4 	addi	r2,r2,-1
 8000d78:	2085883a 	add	r2,r4,r2
 8000d7c:	1885883a 	add	r2,r3,r2
 8000d80:	10800003 	ldbu	r2,0(r2)
 8000d84:	10803fcc 	andi	r2,r2,255
 8000d88:	108003cc 	andi	r2,r2,15
 8000d8c:	10800320 	cmpeqi	r2,r2,12
 8000d90:	1000231e 	bne	r2,zero,8000e20 <checkMove+0x560>
 8000d94:	d0e00017 	ldw	r3,-32768(gp)
 8000d98:	e0bffe03 	ldbu	r2,-8(fp)
 8000d9c:	10800044 	addi	r2,r2,1
 8000da0:	100890fa 	slli	r4,r2,3
 8000da4:	e0bfff03 	ldbu	r2,-4(fp)
 8000da8:	10bfffc4 	addi	r2,r2,-1
 8000dac:	2085883a 	add	r2,r4,r2
 8000db0:	1885883a 	add	r2,r3,r2
 8000db4:	10800003 	ldbu	r2,0(r2)
 8000db8:	10803fcc 	andi	r2,r2,255
 8000dbc:	10c0004c 	andi	r3,r2,1
 8000dc0:	e0bffd83 	ldbu	r2,-10(fp)
 8000dc4:	18801626 	beq	r3,r2,8000e20 <checkMove+0x560>
						HILITE(initRow + 1, initCol - 1);
 8000dc8:	d0e00017 	ldw	r3,-32768(gp)
 8000dcc:	e0bffe03 	ldbu	r2,-8(fp)
 8000dd0:	10800044 	addi	r2,r2,1
 8000dd4:	100890fa 	slli	r4,r2,3
 8000dd8:	e0bfff03 	ldbu	r2,-4(fp)
 8000ddc:	10bfffc4 	addi	r2,r2,-1
 8000de0:	2085883a 	add	r2,r4,r2
 8000de4:	d1600017 	ldw	r5,-32768(gp)
 8000de8:	e13ffe03 	ldbu	r4,-8(fp)
 8000dec:	21000044 	addi	r4,r4,1
 8000df0:	200c90fa 	slli	r6,r4,3
 8000df4:	e13fff03 	ldbu	r4,-4(fp)
 8000df8:	213fffc4 	addi	r4,r4,-1
 8000dfc:	3109883a 	add	r4,r6,r4
 8000e00:	2909883a 	add	r4,r5,r4
 8000e04:	21000003 	ldbu	r4,0(r4)
 8000e08:	21000414 	ori	r4,r4,16
 8000e0c:	1885883a 	add	r2,r3,r2
 8000e10:	11000005 	stb	r4,0(r2)
 8000e14:	e0bffd03 	ldbu	r2,-12(fp)
 8000e18:	10800044 	addi	r2,r2,1
 8000e1c:	e0bffd05 	stb	r2,-12(fp)
					}
					if (initCol != 7 && CHECK_SQUARE_ENEMY(initRow + 1, initCol + 1, color)) {
 8000e20:	e0bfff03 	ldbu	r2,-4(fp)
 8000e24:	108001e0 	cmpeqi	r2,r2,7
 8000e28:	1008c21e 	bne	r2,zero,8003134 <checkMove+0x2874>
 8000e2c:	d0e00017 	ldw	r3,-32768(gp)
 8000e30:	e0bffe03 	ldbu	r2,-8(fp)
 8000e34:	10800044 	addi	r2,r2,1
 8000e38:	100890fa 	slli	r4,r2,3
 8000e3c:	e0bfff03 	ldbu	r2,-4(fp)
 8000e40:	10800044 	addi	r2,r2,1
 8000e44:	2085883a 	add	r2,r4,r2
 8000e48:	1885883a 	add	r2,r3,r2
 8000e4c:	10800003 	ldbu	r2,0(r2)
 8000e50:	10803fcc 	andi	r2,r2,255
 8000e54:	108003cc 	andi	r2,r2,15
 8000e58:	10800320 	cmpeqi	r2,r2,12
 8000e5c:	1008b51e 	bne	r2,zero,8003134 <checkMove+0x2874>
 8000e60:	d0e00017 	ldw	r3,-32768(gp)
 8000e64:	e0bffe03 	ldbu	r2,-8(fp)
 8000e68:	10800044 	addi	r2,r2,1
 8000e6c:	100890fa 	slli	r4,r2,3
 8000e70:	e0bfff03 	ldbu	r2,-4(fp)
 8000e74:	10800044 	addi	r2,r2,1
 8000e78:	2085883a 	add	r2,r4,r2
 8000e7c:	1885883a 	add	r2,r3,r2
 8000e80:	10800003 	ldbu	r2,0(r2)
 8000e84:	10803fcc 	andi	r2,r2,255
 8000e88:	10c0004c 	andi	r3,r2,1
 8000e8c:	e0bffd83 	ldbu	r2,-10(fp)
 8000e90:	1888a826 	beq	r3,r2,8003134 <checkMove+0x2874>
						HILITE(initRow + 1, initCol + 1);
 8000e94:	d0e00017 	ldw	r3,-32768(gp)
 8000e98:	e0bffe03 	ldbu	r2,-8(fp)
 8000e9c:	10800044 	addi	r2,r2,1
 8000ea0:	100890fa 	slli	r4,r2,3
 8000ea4:	e0bfff03 	ldbu	r2,-4(fp)
 8000ea8:	10800044 	addi	r2,r2,1
 8000eac:	2085883a 	add	r2,r4,r2
 8000eb0:	d1600017 	ldw	r5,-32768(gp)
 8000eb4:	e13ffe03 	ldbu	r4,-8(fp)
 8000eb8:	21000044 	addi	r4,r4,1
 8000ebc:	200c90fa 	slli	r6,r4,3
 8000ec0:	e13fff03 	ldbu	r4,-4(fp)
 8000ec4:	21000044 	addi	r4,r4,1
 8000ec8:	3109883a 	add	r4,r6,r4
 8000ecc:	2909883a 	add	r4,r5,r4
 8000ed0:	21000003 	ldbu	r4,0(r4)
 8000ed4:	21000414 	ori	r4,r4,16
 8000ed8:	1885883a 	add	r2,r3,r2
 8000edc:	11000005 	stb	r4,0(r2)
 8000ee0:	e0bffd03 	ldbu	r2,-12(fp)
 8000ee4:	10800044 	addi	r2,r2,1
 8000ee8:	e0bffd05 	stb	r2,-12(fp)
					}
				}
			}
			break;
 8000eec:	00089106 	br	8003134 <checkMove+0x2874>
		case KNIGHT:
			if (initRow >= 2) {
 8000ef0:	e0bffe03 	ldbu	r2,-8(fp)
 8000ef4:	108000b0 	cmpltui	r2,r2,2
 8000ef8:	10007f1e 	bne	r2,zero,80010f8 <checkMove+0x838>
				if (initCol >= 1 && CHECK_SQUARE_EMPTY_OR_ENEMY(initRow - 2, initCol - 1, color)) {
 8000efc:	e0bfff03 	ldbu	r2,-4(fp)
 8000f00:	10003d26 	beq	r2,zero,8000ff8 <checkMove+0x738>
 8000f04:	d0e00017 	ldw	r3,-32768(gp)
 8000f08:	e0bffe03 	ldbu	r2,-8(fp)
 8000f0c:	10bfff84 	addi	r2,r2,-2
 8000f10:	100890fa 	slli	r4,r2,3
 8000f14:	e0bfff03 	ldbu	r2,-4(fp)
 8000f18:	10bfffc4 	addi	r2,r2,-1
 8000f1c:	2085883a 	add	r2,r4,r2
 8000f20:	1885883a 	add	r2,r3,r2
 8000f24:	10800003 	ldbu	r2,0(r2)
 8000f28:	10803fcc 	andi	r2,r2,255
 8000f2c:	108003cc 	andi	r2,r2,15
 8000f30:	10800320 	cmpeqi	r2,r2,12
 8000f34:	10001a1e 	bne	r2,zero,8000fa0 <checkMove+0x6e0>
 8000f38:	d0e00017 	ldw	r3,-32768(gp)
 8000f3c:	e0bffe03 	ldbu	r2,-8(fp)
 8000f40:	10bfff84 	addi	r2,r2,-2
 8000f44:	100890fa 	slli	r4,r2,3
 8000f48:	e0bfff03 	ldbu	r2,-4(fp)
 8000f4c:	10bfffc4 	addi	r2,r2,-1
 8000f50:	2085883a 	add	r2,r4,r2
 8000f54:	1885883a 	add	r2,r3,r2
 8000f58:	10800003 	ldbu	r2,0(r2)
 8000f5c:	10803fcc 	andi	r2,r2,255
 8000f60:	108003cc 	andi	r2,r2,15
 8000f64:	10800320 	cmpeqi	r2,r2,12
 8000f68:	1000231e 	bne	r2,zero,8000ff8 <checkMove+0x738>
 8000f6c:	d0e00017 	ldw	r3,-32768(gp)
 8000f70:	e0bffe03 	ldbu	r2,-8(fp)
 8000f74:	10bfff84 	addi	r2,r2,-2
 8000f78:	100890fa 	slli	r4,r2,3
 8000f7c:	e0bfff03 	ldbu	r2,-4(fp)
 8000f80:	10bfffc4 	addi	r2,r2,-1
 8000f84:	2085883a 	add	r2,r4,r2
 8000f88:	1885883a 	add	r2,r3,r2
 8000f8c:	10800003 	ldbu	r2,0(r2)
 8000f90:	10803fcc 	andi	r2,r2,255
 8000f94:	10c0004c 	andi	r3,r2,1
 8000f98:	e0bffd83 	ldbu	r2,-10(fp)
 8000f9c:	18801626 	beq	r3,r2,8000ff8 <checkMove+0x738>
					HILITE(initRow - 2, initCol - 1);
 8000fa0:	d0e00017 	ldw	r3,-32768(gp)
 8000fa4:	e0bffe03 	ldbu	r2,-8(fp)
 8000fa8:	10bfff84 	addi	r2,r2,-2
 8000fac:	100890fa 	slli	r4,r2,3
 8000fb0:	e0bfff03 	ldbu	r2,-4(fp)
 8000fb4:	10bfffc4 	addi	r2,r2,-1
 8000fb8:	2085883a 	add	r2,r4,r2
 8000fbc:	d1600017 	ldw	r5,-32768(gp)
 8000fc0:	e13ffe03 	ldbu	r4,-8(fp)
 8000fc4:	213fff84 	addi	r4,r4,-2
 8000fc8:	200c90fa 	slli	r6,r4,3
 8000fcc:	e13fff03 	ldbu	r4,-4(fp)
 8000fd0:	213fffc4 	addi	r4,r4,-1
 8000fd4:	3109883a 	add	r4,r6,r4
 8000fd8:	2909883a 	add	r4,r5,r4
 8000fdc:	21000003 	ldbu	r4,0(r4)
 8000fe0:	21000414 	ori	r4,r4,16
 8000fe4:	1885883a 	add	r2,r3,r2
 8000fe8:	11000005 	stb	r4,0(r2)
 8000fec:	e0bffd03 	ldbu	r2,-12(fp)
 8000ff0:	10800044 	addi	r2,r2,1
 8000ff4:	e0bffd05 	stb	r2,-12(fp)
				}
				if (initCol <= 6 && CHECK_SQUARE_EMPTY_OR_ENEMY(initRow - 2, initCol + 1, color)) {
 8000ff8:	e0bfff03 	ldbu	r2,-4(fp)
 8000ffc:	108001e8 	cmpgeui	r2,r2,7
 8001000:	10003d1e 	bne	r2,zero,80010f8 <checkMove+0x838>
 8001004:	d0e00017 	ldw	r3,-32768(gp)
 8001008:	e0bffe03 	ldbu	r2,-8(fp)
 800100c:	10bfff84 	addi	r2,r2,-2
 8001010:	100890fa 	slli	r4,r2,3
 8001014:	e0bfff03 	ldbu	r2,-4(fp)
 8001018:	10800044 	addi	r2,r2,1
 800101c:	2085883a 	add	r2,r4,r2
 8001020:	1885883a 	add	r2,r3,r2
 8001024:	10800003 	ldbu	r2,0(r2)
 8001028:	10803fcc 	andi	r2,r2,255
 800102c:	108003cc 	andi	r2,r2,15
 8001030:	10800320 	cmpeqi	r2,r2,12
 8001034:	10001a1e 	bne	r2,zero,80010a0 <checkMove+0x7e0>
 8001038:	d0e00017 	ldw	r3,-32768(gp)
 800103c:	e0bffe03 	ldbu	r2,-8(fp)
 8001040:	10bfff84 	addi	r2,r2,-2
 8001044:	100890fa 	slli	r4,r2,3
 8001048:	e0bfff03 	ldbu	r2,-4(fp)
 800104c:	10800044 	addi	r2,r2,1
 8001050:	2085883a 	add	r2,r4,r2
 8001054:	1885883a 	add	r2,r3,r2
 8001058:	10800003 	ldbu	r2,0(r2)
 800105c:	10803fcc 	andi	r2,r2,255
 8001060:	108003cc 	andi	r2,r2,15
 8001064:	10800320 	cmpeqi	r2,r2,12
 8001068:	1000231e 	bne	r2,zero,80010f8 <checkMove+0x838>
 800106c:	d0e00017 	ldw	r3,-32768(gp)
 8001070:	e0bffe03 	ldbu	r2,-8(fp)
 8001074:	10bfff84 	addi	r2,r2,-2
 8001078:	100890fa 	slli	r4,r2,3
 800107c:	e0bfff03 	ldbu	r2,-4(fp)
 8001080:	10800044 	addi	r2,r2,1
 8001084:	2085883a 	add	r2,r4,r2
 8001088:	1885883a 	add	r2,r3,r2
 800108c:	10800003 	ldbu	r2,0(r2)
 8001090:	10803fcc 	andi	r2,r2,255
 8001094:	10c0004c 	andi	r3,r2,1
 8001098:	e0bffd83 	ldbu	r2,-10(fp)
 800109c:	18801626 	beq	r3,r2,80010f8 <checkMove+0x838>
					HILITE(initRow - 2, initCol + 1);
 80010a0:	d0e00017 	ldw	r3,-32768(gp)
 80010a4:	e0bffe03 	ldbu	r2,-8(fp)
 80010a8:	10bfff84 	addi	r2,r2,-2
 80010ac:	100890fa 	slli	r4,r2,3
 80010b0:	e0bfff03 	ldbu	r2,-4(fp)
 80010b4:	10800044 	addi	r2,r2,1
 80010b8:	2085883a 	add	r2,r4,r2
 80010bc:	d1600017 	ldw	r5,-32768(gp)
 80010c0:	e13ffe03 	ldbu	r4,-8(fp)
 80010c4:	213fff84 	addi	r4,r4,-2
 80010c8:	200c90fa 	slli	r6,r4,3
 80010cc:	e13fff03 	ldbu	r4,-4(fp)
 80010d0:	21000044 	addi	r4,r4,1
 80010d4:	3109883a 	add	r4,r6,r4
 80010d8:	2909883a 	add	r4,r5,r4
 80010dc:	21000003 	ldbu	r4,0(r4)
 80010e0:	21000414 	ori	r4,r4,16
 80010e4:	1885883a 	add	r2,r3,r2
 80010e8:	11000005 	stb	r4,0(r2)
 80010ec:	e0bffd03 	ldbu	r2,-12(fp)
 80010f0:	10800044 	addi	r2,r2,1
 80010f4:	e0bffd05 	stb	r2,-12(fp)
				}
			}
			if (initRow >= 1) {
 80010f8:	e0bffe03 	ldbu	r2,-8(fp)
 80010fc:	10008026 	beq	r2,zero,8001300 <checkMove+0xa40>
				if (initCol >= 2 && CHECK_SQUARE_EMPTY_OR_ENEMY(initRow - 1, initCol - 2, color)) {
 8001100:	e0bfff03 	ldbu	r2,-4(fp)
 8001104:	108000b0 	cmpltui	r2,r2,2
 8001108:	10003d1e 	bne	r2,zero,8001200 <checkMove+0x940>
 800110c:	d0e00017 	ldw	r3,-32768(gp)
 8001110:	e0bffe03 	ldbu	r2,-8(fp)
 8001114:	10bfffc4 	addi	r2,r2,-1
 8001118:	100890fa 	slli	r4,r2,3
 800111c:	e0bfff03 	ldbu	r2,-4(fp)
 8001120:	10bfff84 	addi	r2,r2,-2
 8001124:	2085883a 	add	r2,r4,r2
 8001128:	1885883a 	add	r2,r3,r2
 800112c:	10800003 	ldbu	r2,0(r2)
 8001130:	10803fcc 	andi	r2,r2,255
 8001134:	108003cc 	andi	r2,r2,15
 8001138:	10800320 	cmpeqi	r2,r2,12
 800113c:	10001a1e 	bne	r2,zero,80011a8 <checkMove+0x8e8>
 8001140:	d0e00017 	ldw	r3,-32768(gp)
 8001144:	e0bffe03 	ldbu	r2,-8(fp)
 8001148:	10bfffc4 	addi	r2,r2,-1
 800114c:	100890fa 	slli	r4,r2,3
 8001150:	e0bfff03 	ldbu	r2,-4(fp)
 8001154:	10bfff84 	addi	r2,r2,-2
 8001158:	2085883a 	add	r2,r4,r2
 800115c:	1885883a 	add	r2,r3,r2
 8001160:	10800003 	ldbu	r2,0(r2)
 8001164:	10803fcc 	andi	r2,r2,255
 8001168:	108003cc 	andi	r2,r2,15
 800116c:	10800320 	cmpeqi	r2,r2,12
 8001170:	1000231e 	bne	r2,zero,8001200 <checkMove+0x940>
 8001174:	d0e00017 	ldw	r3,-32768(gp)
 8001178:	e0bffe03 	ldbu	r2,-8(fp)
 800117c:	10bfffc4 	addi	r2,r2,-1
 8001180:	100890fa 	slli	r4,r2,3
 8001184:	e0bfff03 	ldbu	r2,-4(fp)
 8001188:	10bfff84 	addi	r2,r2,-2
 800118c:	2085883a 	add	r2,r4,r2
 8001190:	1885883a 	add	r2,r3,r2
 8001194:	10800003 	ldbu	r2,0(r2)
 8001198:	10803fcc 	andi	r2,r2,255
 800119c:	10c0004c 	andi	r3,r2,1
 80011a0:	e0bffd83 	ldbu	r2,-10(fp)
 80011a4:	18801626 	beq	r3,r2,8001200 <checkMove+0x940>
					HILITE(initRow - 1, initCol - 2);
 80011a8:	d0e00017 	ldw	r3,-32768(gp)
 80011ac:	e0bffe03 	ldbu	r2,-8(fp)
 80011b0:	10bfffc4 	addi	r2,r2,-1
 80011b4:	100890fa 	slli	r4,r2,3
 80011b8:	e0bfff03 	ldbu	r2,-4(fp)
 80011bc:	10bfff84 	addi	r2,r2,-2
 80011c0:	2085883a 	add	r2,r4,r2
 80011c4:	d1600017 	ldw	r5,-32768(gp)
 80011c8:	e13ffe03 	ldbu	r4,-8(fp)
 80011cc:	213fffc4 	addi	r4,r4,-1
 80011d0:	200c90fa 	slli	r6,r4,3
 80011d4:	e13fff03 	ldbu	r4,-4(fp)
 80011d8:	213fff84 	addi	r4,r4,-2
 80011dc:	3109883a 	add	r4,r6,r4
 80011e0:	2909883a 	add	r4,r5,r4
 80011e4:	21000003 	ldbu	r4,0(r4)
 80011e8:	21000414 	ori	r4,r4,16
 80011ec:	1885883a 	add	r2,r3,r2
 80011f0:	11000005 	stb	r4,0(r2)
 80011f4:	e0bffd03 	ldbu	r2,-12(fp)
 80011f8:	10800044 	addi	r2,r2,1
 80011fc:	e0bffd05 	stb	r2,-12(fp)
				}
				if (initCol <= 5 && CHECK_SQUARE_EMPTY_OR_ENEMY(initRow - 1, initCol + 2, color)) {
 8001200:	e0bfff03 	ldbu	r2,-4(fp)
 8001204:	108001a8 	cmpgeui	r2,r2,6
 8001208:	10003d1e 	bne	r2,zero,8001300 <checkMove+0xa40>
 800120c:	d0e00017 	ldw	r3,-32768(gp)
 8001210:	e0bffe03 	ldbu	r2,-8(fp)
 8001214:	10bfffc4 	addi	r2,r2,-1
 8001218:	100890fa 	slli	r4,r2,3
 800121c:	e0bfff03 	ldbu	r2,-4(fp)
 8001220:	10800084 	addi	r2,r2,2
 8001224:	2085883a 	add	r2,r4,r2
 8001228:	1885883a 	add	r2,r3,r2
 800122c:	10800003 	ldbu	r2,0(r2)
 8001230:	10803fcc 	andi	r2,r2,255
 8001234:	108003cc 	andi	r2,r2,15
 8001238:	10800320 	cmpeqi	r2,r2,12
 800123c:	10001a1e 	bne	r2,zero,80012a8 <checkMove+0x9e8>
 8001240:	d0e00017 	ldw	r3,-32768(gp)
 8001244:	e0bffe03 	ldbu	r2,-8(fp)
 8001248:	10bfffc4 	addi	r2,r2,-1
 800124c:	100890fa 	slli	r4,r2,3
 8001250:	e0bfff03 	ldbu	r2,-4(fp)
 8001254:	10800084 	addi	r2,r2,2
 8001258:	2085883a 	add	r2,r4,r2
 800125c:	1885883a 	add	r2,r3,r2
 8001260:	10800003 	ldbu	r2,0(r2)
 8001264:	10803fcc 	andi	r2,r2,255
 8001268:	108003cc 	andi	r2,r2,15
 800126c:	10800320 	cmpeqi	r2,r2,12
 8001270:	1000231e 	bne	r2,zero,8001300 <checkMove+0xa40>
 8001274:	d0e00017 	ldw	r3,-32768(gp)
 8001278:	e0bffe03 	ldbu	r2,-8(fp)
 800127c:	10bfffc4 	addi	r2,r2,-1
 8001280:	100890fa 	slli	r4,r2,3
 8001284:	e0bfff03 	ldbu	r2,-4(fp)
 8001288:	10800084 	addi	r2,r2,2
 800128c:	2085883a 	add	r2,r4,r2
 8001290:	1885883a 	add	r2,r3,r2
 8001294:	10800003 	ldbu	r2,0(r2)
 8001298:	10803fcc 	andi	r2,r2,255
 800129c:	10c0004c 	andi	r3,r2,1
 80012a0:	e0bffd83 	ldbu	r2,-10(fp)
 80012a4:	18801626 	beq	r3,r2,8001300 <checkMove+0xa40>
					HILITE(initRow - 1, initCol + 2);
 80012a8:	d0e00017 	ldw	r3,-32768(gp)
 80012ac:	e0bffe03 	ldbu	r2,-8(fp)
 80012b0:	10bfffc4 	addi	r2,r2,-1
 80012b4:	100890fa 	slli	r4,r2,3
 80012b8:	e0bfff03 	ldbu	r2,-4(fp)
 80012bc:	10800084 	addi	r2,r2,2
 80012c0:	2085883a 	add	r2,r4,r2
 80012c4:	d1600017 	ldw	r5,-32768(gp)
 80012c8:	e13ffe03 	ldbu	r4,-8(fp)
 80012cc:	213fffc4 	addi	r4,r4,-1
 80012d0:	200c90fa 	slli	r6,r4,3
 80012d4:	e13fff03 	ldbu	r4,-4(fp)
 80012d8:	21000084 	addi	r4,r4,2
 80012dc:	3109883a 	add	r4,r6,r4
 80012e0:	2909883a 	add	r4,r5,r4
 80012e4:	21000003 	ldbu	r4,0(r4)
 80012e8:	21000414 	ori	r4,r4,16
 80012ec:	1885883a 	add	r2,r3,r2
 80012f0:	11000005 	stb	r4,0(r2)
 80012f4:	e0bffd03 	ldbu	r2,-12(fp)
 80012f8:	10800044 	addi	r2,r2,1
 80012fc:	e0bffd05 	stb	r2,-12(fp)
				}
			}
			if (initRow <= 5) {
 8001300:	e0bffe03 	ldbu	r2,-8(fp)
 8001304:	108001a8 	cmpgeui	r2,r2,6
 8001308:	10007f1e 	bne	r2,zero,8001508 <checkMove+0xc48>
				if (initCol >= 1 && CHECK_SQUARE_EMPTY_OR_ENEMY(initRow + 2, initCol - 1, color)) {
 800130c:	e0bfff03 	ldbu	r2,-4(fp)
 8001310:	10003d26 	beq	r2,zero,8001408 <checkMove+0xb48>
 8001314:	d0e00017 	ldw	r3,-32768(gp)
 8001318:	e0bffe03 	ldbu	r2,-8(fp)
 800131c:	10800084 	addi	r2,r2,2
 8001320:	100890fa 	slli	r4,r2,3
 8001324:	e0bfff03 	ldbu	r2,-4(fp)
 8001328:	10bfffc4 	addi	r2,r2,-1
 800132c:	2085883a 	add	r2,r4,r2
 8001330:	1885883a 	add	r2,r3,r2
 8001334:	10800003 	ldbu	r2,0(r2)
 8001338:	10803fcc 	andi	r2,r2,255
 800133c:	108003cc 	andi	r2,r2,15
 8001340:	10800320 	cmpeqi	r2,r2,12
 8001344:	10001a1e 	bne	r2,zero,80013b0 <checkMove+0xaf0>
 8001348:	d0e00017 	ldw	r3,-32768(gp)
 800134c:	e0bffe03 	ldbu	r2,-8(fp)
 8001350:	10800084 	addi	r2,r2,2
 8001354:	100890fa 	slli	r4,r2,3
 8001358:	e0bfff03 	ldbu	r2,-4(fp)
 800135c:	10bfffc4 	addi	r2,r2,-1
 8001360:	2085883a 	add	r2,r4,r2
 8001364:	1885883a 	add	r2,r3,r2
 8001368:	10800003 	ldbu	r2,0(r2)
 800136c:	10803fcc 	andi	r2,r2,255
 8001370:	108003cc 	andi	r2,r2,15
 8001374:	10800320 	cmpeqi	r2,r2,12
 8001378:	1000231e 	bne	r2,zero,8001408 <checkMove+0xb48>
 800137c:	d0e00017 	ldw	r3,-32768(gp)
 8001380:	e0bffe03 	ldbu	r2,-8(fp)
 8001384:	10800084 	addi	r2,r2,2
 8001388:	100890fa 	slli	r4,r2,3
 800138c:	e0bfff03 	ldbu	r2,-4(fp)
 8001390:	10bfffc4 	addi	r2,r2,-1
 8001394:	2085883a 	add	r2,r4,r2
 8001398:	1885883a 	add	r2,r3,r2
 800139c:	10800003 	ldbu	r2,0(r2)
 80013a0:	10803fcc 	andi	r2,r2,255
 80013a4:	10c0004c 	andi	r3,r2,1
 80013a8:	e0bffd83 	ldbu	r2,-10(fp)
 80013ac:	18801626 	beq	r3,r2,8001408 <checkMove+0xb48>
					HILITE(initRow + 2, initCol - 1);
 80013b0:	d0e00017 	ldw	r3,-32768(gp)
 80013b4:	e0bffe03 	ldbu	r2,-8(fp)
 80013b8:	10800084 	addi	r2,r2,2
 80013bc:	100890fa 	slli	r4,r2,3
 80013c0:	e0bfff03 	ldbu	r2,-4(fp)
 80013c4:	10bfffc4 	addi	r2,r2,-1
 80013c8:	2085883a 	add	r2,r4,r2
 80013cc:	d1600017 	ldw	r5,-32768(gp)
 80013d0:	e13ffe03 	ldbu	r4,-8(fp)
 80013d4:	21000084 	addi	r4,r4,2
 80013d8:	200c90fa 	slli	r6,r4,3
 80013dc:	e13fff03 	ldbu	r4,-4(fp)
 80013e0:	213fffc4 	addi	r4,r4,-1
 80013e4:	3109883a 	add	r4,r6,r4
 80013e8:	2909883a 	add	r4,r5,r4
 80013ec:	21000003 	ldbu	r4,0(r4)
 80013f0:	21000414 	ori	r4,r4,16
 80013f4:	1885883a 	add	r2,r3,r2
 80013f8:	11000005 	stb	r4,0(r2)
 80013fc:	e0bffd03 	ldbu	r2,-12(fp)
 8001400:	10800044 	addi	r2,r2,1
 8001404:	e0bffd05 	stb	r2,-12(fp)
				}
				if (initCol <= 6 && CHECK_SQUARE_EMPTY_OR_ENEMY(initRow + 2, initCol + 1, color)) {
 8001408:	e0bfff03 	ldbu	r2,-4(fp)
 800140c:	108001e8 	cmpgeui	r2,r2,7
 8001410:	10003d1e 	bne	r2,zero,8001508 <checkMove+0xc48>
 8001414:	d0e00017 	ldw	r3,-32768(gp)
 8001418:	e0bffe03 	ldbu	r2,-8(fp)
 800141c:	10800084 	addi	r2,r2,2
 8001420:	100890fa 	slli	r4,r2,3
 8001424:	e0bfff03 	ldbu	r2,-4(fp)
 8001428:	10800044 	addi	r2,r2,1
 800142c:	2085883a 	add	r2,r4,r2
 8001430:	1885883a 	add	r2,r3,r2
 8001434:	10800003 	ldbu	r2,0(r2)
 8001438:	10803fcc 	andi	r2,r2,255
 800143c:	108003cc 	andi	r2,r2,15
 8001440:	10800320 	cmpeqi	r2,r2,12
 8001444:	10001a1e 	bne	r2,zero,80014b0 <checkMove+0xbf0>
 8001448:	d0e00017 	ldw	r3,-32768(gp)
 800144c:	e0bffe03 	ldbu	r2,-8(fp)
 8001450:	10800084 	addi	r2,r2,2
 8001454:	100890fa 	slli	r4,r2,3
 8001458:	e0bfff03 	ldbu	r2,-4(fp)
 800145c:	10800044 	addi	r2,r2,1
 8001460:	2085883a 	add	r2,r4,r2
 8001464:	1885883a 	add	r2,r3,r2
 8001468:	10800003 	ldbu	r2,0(r2)
 800146c:	10803fcc 	andi	r2,r2,255
 8001470:	108003cc 	andi	r2,r2,15
 8001474:	10800320 	cmpeqi	r2,r2,12
 8001478:	1000231e 	bne	r2,zero,8001508 <checkMove+0xc48>
 800147c:	d0e00017 	ldw	r3,-32768(gp)
 8001480:	e0bffe03 	ldbu	r2,-8(fp)
 8001484:	10800084 	addi	r2,r2,2
 8001488:	100890fa 	slli	r4,r2,3
 800148c:	e0bfff03 	ldbu	r2,-4(fp)
 8001490:	10800044 	addi	r2,r2,1
 8001494:	2085883a 	add	r2,r4,r2
 8001498:	1885883a 	add	r2,r3,r2
 800149c:	10800003 	ldbu	r2,0(r2)
 80014a0:	10803fcc 	andi	r2,r2,255
 80014a4:	10c0004c 	andi	r3,r2,1
 80014a8:	e0bffd83 	ldbu	r2,-10(fp)
 80014ac:	18801626 	beq	r3,r2,8001508 <checkMove+0xc48>
					HILITE(initRow + 2, initCol + 1);
 80014b0:	d0e00017 	ldw	r3,-32768(gp)
 80014b4:	e0bffe03 	ldbu	r2,-8(fp)
 80014b8:	10800084 	addi	r2,r2,2
 80014bc:	100890fa 	slli	r4,r2,3
 80014c0:	e0bfff03 	ldbu	r2,-4(fp)
 80014c4:	10800044 	addi	r2,r2,1
 80014c8:	2085883a 	add	r2,r4,r2
 80014cc:	d1600017 	ldw	r5,-32768(gp)
 80014d0:	e13ffe03 	ldbu	r4,-8(fp)
 80014d4:	21000084 	addi	r4,r4,2
 80014d8:	200c90fa 	slli	r6,r4,3
 80014dc:	e13fff03 	ldbu	r4,-4(fp)
 80014e0:	21000044 	addi	r4,r4,1
 80014e4:	3109883a 	add	r4,r6,r4
 80014e8:	2909883a 	add	r4,r5,r4
 80014ec:	21000003 	ldbu	r4,0(r4)
 80014f0:	21000414 	ori	r4,r4,16
 80014f4:	1885883a 	add	r2,r3,r2
 80014f8:	11000005 	stb	r4,0(r2)
 80014fc:	e0bffd03 	ldbu	r2,-12(fp)
 8001500:	10800044 	addi	r2,r2,1
 8001504:	e0bffd05 	stb	r2,-12(fp)
				}
			}
			if (initRow <= 6) {
 8001508:	e0bffe03 	ldbu	r2,-8(fp)
 800150c:	108001e8 	cmpgeui	r2,r2,7
 8001510:	10070a1e 	bne	r2,zero,800313c <checkMove+0x287c>
				if (initCol >= 2 && CHECK_SQUARE_EMPTY_OR_ENEMY(initRow + 1, initCol - 2, color)) {
 8001514:	e0bfff03 	ldbu	r2,-4(fp)
 8001518:	108000b0 	cmpltui	r2,r2,2
 800151c:	10003d1e 	bne	r2,zero,8001614 <checkMove+0xd54>
 8001520:	d0e00017 	ldw	r3,-32768(gp)
 8001524:	e0bffe03 	ldbu	r2,-8(fp)
 8001528:	10800044 	addi	r2,r2,1
 800152c:	100890fa 	slli	r4,r2,3
 8001530:	e0bfff03 	ldbu	r2,-4(fp)
 8001534:	10bfff84 	addi	r2,r2,-2
 8001538:	2085883a 	add	r2,r4,r2
 800153c:	1885883a 	add	r2,r3,r2
 8001540:	10800003 	ldbu	r2,0(r2)
 8001544:	10803fcc 	andi	r2,r2,255
 8001548:	108003cc 	andi	r2,r2,15
 800154c:	10800320 	cmpeqi	r2,r2,12
 8001550:	10001a1e 	bne	r2,zero,80015bc <checkMove+0xcfc>
 8001554:	d0e00017 	ldw	r3,-32768(gp)
 8001558:	e0bffe03 	ldbu	r2,-8(fp)
 800155c:	10800044 	addi	r2,r2,1
 8001560:	100890fa 	slli	r4,r2,3
 8001564:	e0bfff03 	ldbu	r2,-4(fp)
 8001568:	10bfff84 	addi	r2,r2,-2
 800156c:	2085883a 	add	r2,r4,r2
 8001570:	1885883a 	add	r2,r3,r2
 8001574:	10800003 	ldbu	r2,0(r2)
 8001578:	10803fcc 	andi	r2,r2,255
 800157c:	108003cc 	andi	r2,r2,15
 8001580:	10800320 	cmpeqi	r2,r2,12
 8001584:	1000231e 	bne	r2,zero,8001614 <checkMove+0xd54>
 8001588:	d0e00017 	ldw	r3,-32768(gp)
 800158c:	e0bffe03 	ldbu	r2,-8(fp)
 8001590:	10800044 	addi	r2,r2,1
 8001594:	100890fa 	slli	r4,r2,3
 8001598:	e0bfff03 	ldbu	r2,-4(fp)
 800159c:	10bfff84 	addi	r2,r2,-2
 80015a0:	2085883a 	add	r2,r4,r2
 80015a4:	1885883a 	add	r2,r3,r2
 80015a8:	10800003 	ldbu	r2,0(r2)
 80015ac:	10803fcc 	andi	r2,r2,255
 80015b0:	10c0004c 	andi	r3,r2,1
 80015b4:	e0bffd83 	ldbu	r2,-10(fp)
 80015b8:	18801626 	beq	r3,r2,8001614 <checkMove+0xd54>
					HILITE(initRow + 1, initCol - 2);
 80015bc:	d0e00017 	ldw	r3,-32768(gp)
 80015c0:	e0bffe03 	ldbu	r2,-8(fp)
 80015c4:	10800044 	addi	r2,r2,1
 80015c8:	100890fa 	slli	r4,r2,3
 80015cc:	e0bfff03 	ldbu	r2,-4(fp)
 80015d0:	10bfff84 	addi	r2,r2,-2
 80015d4:	2085883a 	add	r2,r4,r2
 80015d8:	d1600017 	ldw	r5,-32768(gp)
 80015dc:	e13ffe03 	ldbu	r4,-8(fp)
 80015e0:	21000044 	addi	r4,r4,1
 80015e4:	200c90fa 	slli	r6,r4,3
 80015e8:	e13fff03 	ldbu	r4,-4(fp)
 80015ec:	213fff84 	addi	r4,r4,-2
 80015f0:	3109883a 	add	r4,r6,r4
 80015f4:	2909883a 	add	r4,r5,r4
 80015f8:	21000003 	ldbu	r4,0(r4)
 80015fc:	21000414 	ori	r4,r4,16
 8001600:	1885883a 	add	r2,r3,r2
 8001604:	11000005 	stb	r4,0(r2)
 8001608:	e0bffd03 	ldbu	r2,-12(fp)
 800160c:	10800044 	addi	r2,r2,1
 8001610:	e0bffd05 	stb	r2,-12(fp)
				}
				if (initCol <= 5 && CHECK_SQUARE_EMPTY_OR_ENEMY(initRow + 1, initCol + 2, color)) {
 8001614:	e0bfff03 	ldbu	r2,-4(fp)
 8001618:	108001a8 	cmpgeui	r2,r2,6
 800161c:	1006c71e 	bne	r2,zero,800313c <checkMove+0x287c>
 8001620:	d0e00017 	ldw	r3,-32768(gp)
 8001624:	e0bffe03 	ldbu	r2,-8(fp)
 8001628:	10800044 	addi	r2,r2,1
 800162c:	100890fa 	slli	r4,r2,3
 8001630:	e0bfff03 	ldbu	r2,-4(fp)
 8001634:	10800084 	addi	r2,r2,2
 8001638:	2085883a 	add	r2,r4,r2
 800163c:	1885883a 	add	r2,r3,r2
 8001640:	10800003 	ldbu	r2,0(r2)
 8001644:	10803fcc 	andi	r2,r2,255
 8001648:	108003cc 	andi	r2,r2,15
 800164c:	10800320 	cmpeqi	r2,r2,12
 8001650:	10001a1e 	bne	r2,zero,80016bc <checkMove+0xdfc>
 8001654:	d0e00017 	ldw	r3,-32768(gp)
 8001658:	e0bffe03 	ldbu	r2,-8(fp)
 800165c:	10800044 	addi	r2,r2,1
 8001660:	100890fa 	slli	r4,r2,3
 8001664:	e0bfff03 	ldbu	r2,-4(fp)
 8001668:	10800084 	addi	r2,r2,2
 800166c:	2085883a 	add	r2,r4,r2
 8001670:	1885883a 	add	r2,r3,r2
 8001674:	10800003 	ldbu	r2,0(r2)
 8001678:	10803fcc 	andi	r2,r2,255
 800167c:	108003cc 	andi	r2,r2,15
 8001680:	10800320 	cmpeqi	r2,r2,12
 8001684:	1006ad1e 	bne	r2,zero,800313c <checkMove+0x287c>
 8001688:	d0e00017 	ldw	r3,-32768(gp)
 800168c:	e0bffe03 	ldbu	r2,-8(fp)
 8001690:	10800044 	addi	r2,r2,1
 8001694:	100890fa 	slli	r4,r2,3
 8001698:	e0bfff03 	ldbu	r2,-4(fp)
 800169c:	10800084 	addi	r2,r2,2
 80016a0:	2085883a 	add	r2,r4,r2
 80016a4:	1885883a 	add	r2,r3,r2
 80016a8:	10800003 	ldbu	r2,0(r2)
 80016ac:	10803fcc 	andi	r2,r2,255
 80016b0:	10c0004c 	andi	r3,r2,1
 80016b4:	e0bffd83 	ldbu	r2,-10(fp)
 80016b8:	1886a026 	beq	r3,r2,800313c <checkMove+0x287c>
					HILITE(initRow + 1, initCol + 2);
 80016bc:	d0e00017 	ldw	r3,-32768(gp)
 80016c0:	e0bffe03 	ldbu	r2,-8(fp)
 80016c4:	10800044 	addi	r2,r2,1
 80016c8:	100890fa 	slli	r4,r2,3
 80016cc:	e0bfff03 	ldbu	r2,-4(fp)
 80016d0:	10800084 	addi	r2,r2,2
 80016d4:	2085883a 	add	r2,r4,r2
 80016d8:	d1600017 	ldw	r5,-32768(gp)
 80016dc:	e13ffe03 	ldbu	r4,-8(fp)
 80016e0:	21000044 	addi	r4,r4,1
 80016e4:	200c90fa 	slli	r6,r4,3
 80016e8:	e13fff03 	ldbu	r4,-4(fp)
 80016ec:	21000084 	addi	r4,r4,2
 80016f0:	3109883a 	add	r4,r6,r4
 80016f4:	2909883a 	add	r4,r5,r4
 80016f8:	21000003 	ldbu	r4,0(r4)
 80016fc:	21000414 	ori	r4,r4,16
 8001700:	1885883a 	add	r2,r3,r2
 8001704:	11000005 	stb	r4,0(r2)
 8001708:	e0bffd03 	ldbu	r2,-12(fp)
 800170c:	10800044 	addi	r2,r2,1
 8001710:	e0bffd05 	stb	r2,-12(fp)
				}
			}
			break;
 8001714:	00068906 	br	800313c <checkMove+0x287c>
		case BISHOP:
			r = initRow - 1;
 8001718:	e0bffe03 	ldbu	r2,-8(fp)
 800171c:	10bfffc4 	addi	r2,r2,-1
 8001720:	e0bffb15 	stw	r2,-20(fp)
			c = initCol - 1;
 8001724:	e0bfff03 	ldbu	r2,-4(fp)
 8001728:	10bfffc4 	addi	r2,r2,-1
 800172c:	e0bffc15 	stw	r2,-16(fp)
			while (r >= 0 && c >= 0) {
 8001730:	00004d06 	br	8001868 <checkMove+0xfa8>
				if (CHECK_SQUARE_EMPTY(r, c)) {
 8001734:	d0e00017 	ldw	r3,-32768(gp)
 8001738:	e0bffb17 	ldw	r2,-20(fp)
 800173c:	100890fa 	slli	r4,r2,3
 8001740:	e0bffc17 	ldw	r2,-16(fp)
 8001744:	2085883a 	add	r2,r4,r2
 8001748:	1885883a 	add	r2,r3,r2
 800174c:	10800003 	ldbu	r2,0(r2)
 8001750:	10803fcc 	andi	r2,r2,255
 8001754:	108003cc 	andi	r2,r2,15
 8001758:	10800318 	cmpnei	r2,r2,12
 800175c:	1000191e 	bne	r2,zero,80017c4 <checkMove+0xf04>
					HILITE(r, c);
 8001760:	d0e00017 	ldw	r3,-32768(gp)
 8001764:	e0bffb17 	ldw	r2,-20(fp)
 8001768:	100890fa 	slli	r4,r2,3
 800176c:	e0bffc17 	ldw	r2,-16(fp)
 8001770:	2085883a 	add	r2,r4,r2
 8001774:	d1600017 	ldw	r5,-32768(gp)
 8001778:	e13ffb17 	ldw	r4,-20(fp)
 800177c:	200c90fa 	slli	r6,r4,3
 8001780:	e13ffc17 	ldw	r4,-16(fp)
 8001784:	3109883a 	add	r4,r6,r4
 8001788:	2909883a 	add	r4,r5,r4
 800178c:	21000003 	ldbu	r4,0(r4)
 8001790:	21000414 	ori	r4,r4,16
 8001794:	1885883a 	add	r2,r3,r2
 8001798:	11000005 	stb	r4,0(r2)
 800179c:	e0bffd03 	ldbu	r2,-12(fp)
 80017a0:	10800044 	addi	r2,r2,1
 80017a4:	e0bffd05 	stb	r2,-12(fp)
					r--;
 80017a8:	e0bffb17 	ldw	r2,-20(fp)
 80017ac:	10bfffc4 	addi	r2,r2,-1
 80017b0:	e0bffb15 	stw	r2,-20(fp)
					c--;
 80017b4:	e0bffc17 	ldw	r2,-16(fp)
 80017b8:	10bfffc4 	addi	r2,r2,-1
 80017bc:	e0bffc15 	stw	r2,-16(fp)
 80017c0:	00002906 	br	8001868 <checkMove+0xfa8>
				}
				else if (CHECK_SQUARE_ENEMY(r ,c ,color)) {
 80017c4:	d0e00017 	ldw	r3,-32768(gp)
 80017c8:	e0bffb17 	ldw	r2,-20(fp)
 80017cc:	100890fa 	slli	r4,r2,3
 80017d0:	e0bffc17 	ldw	r2,-16(fp)
 80017d4:	2085883a 	add	r2,r4,r2
 80017d8:	1885883a 	add	r2,r3,r2
 80017dc:	10800003 	ldbu	r2,0(r2)
 80017e0:	10803fcc 	andi	r2,r2,255
 80017e4:	108003cc 	andi	r2,r2,15
 80017e8:	10800320 	cmpeqi	r2,r2,12
 80017ec:	1000221e 	bne	r2,zero,8001878 <checkMove+0xfb8>
 80017f0:	d0e00017 	ldw	r3,-32768(gp)
 80017f4:	e0bffb17 	ldw	r2,-20(fp)
 80017f8:	100890fa 	slli	r4,r2,3
 80017fc:	e0bffc17 	ldw	r2,-16(fp)
 8001800:	2085883a 	add	r2,r4,r2
 8001804:	1885883a 	add	r2,r3,r2
 8001808:	10800003 	ldbu	r2,0(r2)
 800180c:	10803fcc 	andi	r2,r2,255
 8001810:	10c0004c 	andi	r3,r2,1
 8001814:	e0bffd83 	ldbu	r2,-10(fp)
 8001818:	18801726 	beq	r3,r2,8001878 <checkMove+0xfb8>
					HILITE(r, c);
 800181c:	d0e00017 	ldw	r3,-32768(gp)
 8001820:	e0bffb17 	ldw	r2,-20(fp)
 8001824:	100890fa 	slli	r4,r2,3
 8001828:	e0bffc17 	ldw	r2,-16(fp)
 800182c:	2085883a 	add	r2,r4,r2
 8001830:	d1600017 	ldw	r5,-32768(gp)
 8001834:	e13ffb17 	ldw	r4,-20(fp)
 8001838:	200c90fa 	slli	r6,r4,3
 800183c:	e13ffc17 	ldw	r4,-16(fp)
 8001840:	3109883a 	add	r4,r6,r4
 8001844:	2909883a 	add	r4,r5,r4
 8001848:	21000003 	ldbu	r4,0(r4)
 800184c:	21000414 	ori	r4,r4,16
 8001850:	1885883a 	add	r2,r3,r2
 8001854:	11000005 	stb	r4,0(r2)
 8001858:	e0bffd03 	ldbu	r2,-12(fp)
 800185c:	10800044 	addi	r2,r2,1
 8001860:	e0bffd05 	stb	r2,-12(fp)
					break;
 8001864:	00000406 	br	8001878 <checkMove+0xfb8>
			}
			break;
		case BISHOP:
			r = initRow - 1;
			c = initCol - 1;
			while (r >= 0 && c >= 0) {
 8001868:	e0bffb17 	ldw	r2,-20(fp)
 800186c:	10000216 	blt	r2,zero,8001878 <checkMove+0xfb8>
 8001870:	e0bffc17 	ldw	r2,-16(fp)
 8001874:	103faf0e 	bge	r2,zero,8001734 <__alt_data_end+0xfc001734>
					break;
				}
				else break;
			}

			r = initRow + 1;
 8001878:	e0bffe03 	ldbu	r2,-8(fp)
 800187c:	10800044 	addi	r2,r2,1
 8001880:	e0bffb15 	stw	r2,-20(fp)
			c = initCol - 1;
 8001884:	e0bfff03 	ldbu	r2,-4(fp)
 8001888:	10bfffc4 	addi	r2,r2,-1
 800188c:	e0bffc15 	stw	r2,-16(fp)
			while (r < ROWS && c >= 0) {
 8001890:	00004d06 	br	80019c8 <checkMove+0x1108>
				if (CHECK_SQUARE_EMPTY(r, c)) {
 8001894:	d0e00017 	ldw	r3,-32768(gp)
 8001898:	e0bffb17 	ldw	r2,-20(fp)
 800189c:	100890fa 	slli	r4,r2,3
 80018a0:	e0bffc17 	ldw	r2,-16(fp)
 80018a4:	2085883a 	add	r2,r4,r2
 80018a8:	1885883a 	add	r2,r3,r2
 80018ac:	10800003 	ldbu	r2,0(r2)
 80018b0:	10803fcc 	andi	r2,r2,255
 80018b4:	108003cc 	andi	r2,r2,15
 80018b8:	10800318 	cmpnei	r2,r2,12
 80018bc:	1000191e 	bne	r2,zero,8001924 <checkMove+0x1064>
					HILITE(r, c);
 80018c0:	d0e00017 	ldw	r3,-32768(gp)
 80018c4:	e0bffb17 	ldw	r2,-20(fp)
 80018c8:	100890fa 	slli	r4,r2,3
 80018cc:	e0bffc17 	ldw	r2,-16(fp)
 80018d0:	2085883a 	add	r2,r4,r2
 80018d4:	d1600017 	ldw	r5,-32768(gp)
 80018d8:	e13ffb17 	ldw	r4,-20(fp)
 80018dc:	200c90fa 	slli	r6,r4,3
 80018e0:	e13ffc17 	ldw	r4,-16(fp)
 80018e4:	3109883a 	add	r4,r6,r4
 80018e8:	2909883a 	add	r4,r5,r4
 80018ec:	21000003 	ldbu	r4,0(r4)
 80018f0:	21000414 	ori	r4,r4,16
 80018f4:	1885883a 	add	r2,r3,r2
 80018f8:	11000005 	stb	r4,0(r2)
 80018fc:	e0bffd03 	ldbu	r2,-12(fp)
 8001900:	10800044 	addi	r2,r2,1
 8001904:	e0bffd05 	stb	r2,-12(fp)
					r++;
 8001908:	e0bffb17 	ldw	r2,-20(fp)
 800190c:	10800044 	addi	r2,r2,1
 8001910:	e0bffb15 	stw	r2,-20(fp)
					c--;
 8001914:	e0bffc17 	ldw	r2,-16(fp)
 8001918:	10bfffc4 	addi	r2,r2,-1
 800191c:	e0bffc15 	stw	r2,-16(fp)
 8001920:	00002906 	br	80019c8 <checkMove+0x1108>
				}
				else if (CHECK_SQUARE_ENEMY(r ,c ,color)) {
 8001924:	d0e00017 	ldw	r3,-32768(gp)
 8001928:	e0bffb17 	ldw	r2,-20(fp)
 800192c:	100890fa 	slli	r4,r2,3
 8001930:	e0bffc17 	ldw	r2,-16(fp)
 8001934:	2085883a 	add	r2,r4,r2
 8001938:	1885883a 	add	r2,r3,r2
 800193c:	10800003 	ldbu	r2,0(r2)
 8001940:	10803fcc 	andi	r2,r2,255
 8001944:	108003cc 	andi	r2,r2,15
 8001948:	10800320 	cmpeqi	r2,r2,12
 800194c:	1000231e 	bne	r2,zero,80019dc <checkMove+0x111c>
 8001950:	d0e00017 	ldw	r3,-32768(gp)
 8001954:	e0bffb17 	ldw	r2,-20(fp)
 8001958:	100890fa 	slli	r4,r2,3
 800195c:	e0bffc17 	ldw	r2,-16(fp)
 8001960:	2085883a 	add	r2,r4,r2
 8001964:	1885883a 	add	r2,r3,r2
 8001968:	10800003 	ldbu	r2,0(r2)
 800196c:	10803fcc 	andi	r2,r2,255
 8001970:	10c0004c 	andi	r3,r2,1
 8001974:	e0bffd83 	ldbu	r2,-10(fp)
 8001978:	18801826 	beq	r3,r2,80019dc <checkMove+0x111c>
					HILITE(r, c);
 800197c:	d0e00017 	ldw	r3,-32768(gp)
 8001980:	e0bffb17 	ldw	r2,-20(fp)
 8001984:	100890fa 	slli	r4,r2,3
 8001988:	e0bffc17 	ldw	r2,-16(fp)
 800198c:	2085883a 	add	r2,r4,r2
 8001990:	d1600017 	ldw	r5,-32768(gp)
 8001994:	e13ffb17 	ldw	r4,-20(fp)
 8001998:	200c90fa 	slli	r6,r4,3
 800199c:	e13ffc17 	ldw	r4,-16(fp)
 80019a0:	3109883a 	add	r4,r6,r4
 80019a4:	2909883a 	add	r4,r5,r4
 80019a8:	21000003 	ldbu	r4,0(r4)
 80019ac:	21000414 	ori	r4,r4,16
 80019b0:	1885883a 	add	r2,r3,r2
 80019b4:	11000005 	stb	r4,0(r2)
 80019b8:	e0bffd03 	ldbu	r2,-12(fp)
 80019bc:	10800044 	addi	r2,r2,1
 80019c0:	e0bffd05 	stb	r2,-12(fp)
					break;
 80019c4:	00000506 	br	80019dc <checkMove+0x111c>
				else break;
			}

			r = initRow + 1;
			c = initCol - 1;
			while (r < ROWS && c >= 0) {
 80019c8:	e0bffb17 	ldw	r2,-20(fp)
 80019cc:	10800208 	cmpgei	r2,r2,8
 80019d0:	1000021e 	bne	r2,zero,80019dc <checkMove+0x111c>
 80019d4:	e0bffc17 	ldw	r2,-16(fp)
 80019d8:	103fae0e 	bge	r2,zero,8001894 <__alt_data_end+0xfc001894>
					break;
				}
				else break;
			}

			r = initRow - 1;
 80019dc:	e0bffe03 	ldbu	r2,-8(fp)
 80019e0:	10bfffc4 	addi	r2,r2,-1
 80019e4:	e0bffb15 	stw	r2,-20(fp)
			c = initCol + 1;
 80019e8:	e0bfff03 	ldbu	r2,-4(fp)
 80019ec:	10800044 	addi	r2,r2,1
 80019f0:	e0bffc15 	stw	r2,-16(fp)
			while (r >= 0 && c < COLUMNS) {
 80019f4:	00004d06 	br	8001b2c <checkMove+0x126c>
				if (CHECK_SQUARE_EMPTY(r, c)) {
 80019f8:	d0e00017 	ldw	r3,-32768(gp)
 80019fc:	e0bffb17 	ldw	r2,-20(fp)
 8001a00:	100890fa 	slli	r4,r2,3
 8001a04:	e0bffc17 	ldw	r2,-16(fp)
 8001a08:	2085883a 	add	r2,r4,r2
 8001a0c:	1885883a 	add	r2,r3,r2
 8001a10:	10800003 	ldbu	r2,0(r2)
 8001a14:	10803fcc 	andi	r2,r2,255
 8001a18:	108003cc 	andi	r2,r2,15
 8001a1c:	10800318 	cmpnei	r2,r2,12
 8001a20:	1000191e 	bne	r2,zero,8001a88 <checkMove+0x11c8>
					HILITE(r, c);
 8001a24:	d0e00017 	ldw	r3,-32768(gp)
 8001a28:	e0bffb17 	ldw	r2,-20(fp)
 8001a2c:	100890fa 	slli	r4,r2,3
 8001a30:	e0bffc17 	ldw	r2,-16(fp)
 8001a34:	2085883a 	add	r2,r4,r2
 8001a38:	d1600017 	ldw	r5,-32768(gp)
 8001a3c:	e13ffb17 	ldw	r4,-20(fp)
 8001a40:	200c90fa 	slli	r6,r4,3
 8001a44:	e13ffc17 	ldw	r4,-16(fp)
 8001a48:	3109883a 	add	r4,r6,r4
 8001a4c:	2909883a 	add	r4,r5,r4
 8001a50:	21000003 	ldbu	r4,0(r4)
 8001a54:	21000414 	ori	r4,r4,16
 8001a58:	1885883a 	add	r2,r3,r2
 8001a5c:	11000005 	stb	r4,0(r2)
 8001a60:	e0bffd03 	ldbu	r2,-12(fp)
 8001a64:	10800044 	addi	r2,r2,1
 8001a68:	e0bffd05 	stb	r2,-12(fp)
					r--;
 8001a6c:	e0bffb17 	ldw	r2,-20(fp)
 8001a70:	10bfffc4 	addi	r2,r2,-1
 8001a74:	e0bffb15 	stw	r2,-20(fp)
					c++;
 8001a78:	e0bffc17 	ldw	r2,-16(fp)
 8001a7c:	10800044 	addi	r2,r2,1
 8001a80:	e0bffc15 	stw	r2,-16(fp)
 8001a84:	00002906 	br	8001b2c <checkMove+0x126c>
				}
				else if (CHECK_SQUARE_ENEMY(r ,c ,color)) {
 8001a88:	d0e00017 	ldw	r3,-32768(gp)
 8001a8c:	e0bffb17 	ldw	r2,-20(fp)
 8001a90:	100890fa 	slli	r4,r2,3
 8001a94:	e0bffc17 	ldw	r2,-16(fp)
 8001a98:	2085883a 	add	r2,r4,r2
 8001a9c:	1885883a 	add	r2,r3,r2
 8001aa0:	10800003 	ldbu	r2,0(r2)
 8001aa4:	10803fcc 	andi	r2,r2,255
 8001aa8:	108003cc 	andi	r2,r2,15
 8001aac:	10800320 	cmpeqi	r2,r2,12
 8001ab0:	1000231e 	bne	r2,zero,8001b40 <checkMove+0x1280>
 8001ab4:	d0e00017 	ldw	r3,-32768(gp)
 8001ab8:	e0bffb17 	ldw	r2,-20(fp)
 8001abc:	100890fa 	slli	r4,r2,3
 8001ac0:	e0bffc17 	ldw	r2,-16(fp)
 8001ac4:	2085883a 	add	r2,r4,r2
 8001ac8:	1885883a 	add	r2,r3,r2
 8001acc:	10800003 	ldbu	r2,0(r2)
 8001ad0:	10803fcc 	andi	r2,r2,255
 8001ad4:	10c0004c 	andi	r3,r2,1
 8001ad8:	e0bffd83 	ldbu	r2,-10(fp)
 8001adc:	18801826 	beq	r3,r2,8001b40 <checkMove+0x1280>
					HILITE(r, c);
 8001ae0:	d0e00017 	ldw	r3,-32768(gp)
 8001ae4:	e0bffb17 	ldw	r2,-20(fp)
 8001ae8:	100890fa 	slli	r4,r2,3
 8001aec:	e0bffc17 	ldw	r2,-16(fp)
 8001af0:	2085883a 	add	r2,r4,r2
 8001af4:	d1600017 	ldw	r5,-32768(gp)
 8001af8:	e13ffb17 	ldw	r4,-20(fp)
 8001afc:	200c90fa 	slli	r6,r4,3
 8001b00:	e13ffc17 	ldw	r4,-16(fp)
 8001b04:	3109883a 	add	r4,r6,r4
 8001b08:	2909883a 	add	r4,r5,r4
 8001b0c:	21000003 	ldbu	r4,0(r4)
 8001b10:	21000414 	ori	r4,r4,16
 8001b14:	1885883a 	add	r2,r3,r2
 8001b18:	11000005 	stb	r4,0(r2)
 8001b1c:	e0bffd03 	ldbu	r2,-12(fp)
 8001b20:	10800044 	addi	r2,r2,1
 8001b24:	e0bffd05 	stb	r2,-12(fp)
					break;
 8001b28:	00000506 	br	8001b40 <checkMove+0x1280>
				else break;
			}

			r = initRow - 1;
			c = initCol + 1;
			while (r >= 0 && c < COLUMNS) {
 8001b2c:	e0bffb17 	ldw	r2,-20(fp)
 8001b30:	10000316 	blt	r2,zero,8001b40 <checkMove+0x1280>
 8001b34:	e0bffc17 	ldw	r2,-16(fp)
 8001b38:	10800210 	cmplti	r2,r2,8
 8001b3c:	103fae1e 	bne	r2,zero,80019f8 <__alt_data_end+0xfc0019f8>
					break;
				}
				else break;
			}

			r = initRow + 1;
 8001b40:	e0bffe03 	ldbu	r2,-8(fp)
 8001b44:	10800044 	addi	r2,r2,1
 8001b48:	e0bffb15 	stw	r2,-20(fp)
			c = initCol + 1;
 8001b4c:	e0bfff03 	ldbu	r2,-4(fp)
 8001b50:	10800044 	addi	r2,r2,1
 8001b54:	e0bffc15 	stw	r2,-16(fp)
			while (r < ROWS && c < COLUMNS) {
 8001b58:	00004e06 	br	8001c94 <checkMove+0x13d4>
				if (CHECK_SQUARE_EMPTY(r, c)) {
 8001b5c:	d0e00017 	ldw	r3,-32768(gp)
 8001b60:	e0bffb17 	ldw	r2,-20(fp)
 8001b64:	100890fa 	slli	r4,r2,3
 8001b68:	e0bffc17 	ldw	r2,-16(fp)
 8001b6c:	2085883a 	add	r2,r4,r2
 8001b70:	1885883a 	add	r2,r3,r2
 8001b74:	10800003 	ldbu	r2,0(r2)
 8001b78:	10803fcc 	andi	r2,r2,255
 8001b7c:	108003cc 	andi	r2,r2,15
 8001b80:	10800318 	cmpnei	r2,r2,12
 8001b84:	1000191e 	bne	r2,zero,8001bec <checkMove+0x132c>
					HILITE(r, c);
 8001b88:	d0e00017 	ldw	r3,-32768(gp)
 8001b8c:	e0bffb17 	ldw	r2,-20(fp)
 8001b90:	100890fa 	slli	r4,r2,3
 8001b94:	e0bffc17 	ldw	r2,-16(fp)
 8001b98:	2085883a 	add	r2,r4,r2
 8001b9c:	d1600017 	ldw	r5,-32768(gp)
 8001ba0:	e13ffb17 	ldw	r4,-20(fp)
 8001ba4:	200c90fa 	slli	r6,r4,3
 8001ba8:	e13ffc17 	ldw	r4,-16(fp)
 8001bac:	3109883a 	add	r4,r6,r4
 8001bb0:	2909883a 	add	r4,r5,r4
 8001bb4:	21000003 	ldbu	r4,0(r4)
 8001bb8:	21000414 	ori	r4,r4,16
 8001bbc:	1885883a 	add	r2,r3,r2
 8001bc0:	11000005 	stb	r4,0(r2)
 8001bc4:	e0bffd03 	ldbu	r2,-12(fp)
 8001bc8:	10800044 	addi	r2,r2,1
 8001bcc:	e0bffd05 	stb	r2,-12(fp)
					r++;
 8001bd0:	e0bffb17 	ldw	r2,-20(fp)
 8001bd4:	10800044 	addi	r2,r2,1
 8001bd8:	e0bffb15 	stw	r2,-20(fp)
					c++;
 8001bdc:	e0bffc17 	ldw	r2,-16(fp)
 8001be0:	10800044 	addi	r2,r2,1
 8001be4:	e0bffc15 	stw	r2,-16(fp)
 8001be8:	00002a06 	br	8001c94 <checkMove+0x13d4>
				}
				else if (CHECK_SQUARE_ENEMY(r ,c ,color)) {
 8001bec:	d0e00017 	ldw	r3,-32768(gp)
 8001bf0:	e0bffb17 	ldw	r2,-20(fp)
 8001bf4:	100890fa 	slli	r4,r2,3
 8001bf8:	e0bffc17 	ldw	r2,-16(fp)
 8001bfc:	2085883a 	add	r2,r4,r2
 8001c00:	1885883a 	add	r2,r3,r2
 8001c04:	10800003 	ldbu	r2,0(r2)
 8001c08:	10803fcc 	andi	r2,r2,255
 8001c0c:	108003cc 	andi	r2,r2,15
 8001c10:	10800320 	cmpeqi	r2,r2,12
 8001c14:	10054b1e 	bne	r2,zero,8003144 <checkMove+0x2884>
 8001c18:	d0e00017 	ldw	r3,-32768(gp)
 8001c1c:	e0bffb17 	ldw	r2,-20(fp)
 8001c20:	100890fa 	slli	r4,r2,3
 8001c24:	e0bffc17 	ldw	r2,-16(fp)
 8001c28:	2085883a 	add	r2,r4,r2
 8001c2c:	1885883a 	add	r2,r3,r2
 8001c30:	10800003 	ldbu	r2,0(r2)
 8001c34:	10803fcc 	andi	r2,r2,255
 8001c38:	10c0004c 	andi	r3,r2,1
 8001c3c:	e0bffd83 	ldbu	r2,-10(fp)
 8001c40:	18854026 	beq	r3,r2,8003144 <checkMove+0x2884>
					HILITE(r, c);
 8001c44:	d0e00017 	ldw	r3,-32768(gp)
 8001c48:	e0bffb17 	ldw	r2,-20(fp)
 8001c4c:	100890fa 	slli	r4,r2,3
 8001c50:	e0bffc17 	ldw	r2,-16(fp)
 8001c54:	2085883a 	add	r2,r4,r2
 8001c58:	d1600017 	ldw	r5,-32768(gp)
 8001c5c:	e13ffb17 	ldw	r4,-20(fp)
 8001c60:	200c90fa 	slli	r6,r4,3
 8001c64:	e13ffc17 	ldw	r4,-16(fp)
 8001c68:	3109883a 	add	r4,r6,r4
 8001c6c:	2909883a 	add	r4,r5,r4
 8001c70:	21000003 	ldbu	r4,0(r4)
 8001c74:	21000414 	ori	r4,r4,16
 8001c78:	1885883a 	add	r2,r3,r2
 8001c7c:	11000005 	stb	r4,0(r2)
 8001c80:	e0bffd03 	ldbu	r2,-12(fp)
 8001c84:	10800044 	addi	r2,r2,1
 8001c88:	e0bffd05 	stb	r2,-12(fp)
					break;
 8001c8c:	0001883a 	nop
				}
				else break;
			}
			break;
 8001c90:	00052c06 	br	8003144 <checkMove+0x2884>
				else break;
			}

			r = initRow + 1;
			c = initCol + 1;
			while (r < ROWS && c < COLUMNS) {
 8001c94:	e0bffb17 	ldw	r2,-20(fp)
 8001c98:	10800208 	cmpgei	r2,r2,8
 8001c9c:	1005291e 	bne	r2,zero,8003144 <checkMove+0x2884>
 8001ca0:	e0bffc17 	ldw	r2,-16(fp)
 8001ca4:	10800210 	cmplti	r2,r2,8
 8001ca8:	103fac1e 	bne	r2,zero,8001b5c <__alt_data_end+0xfc001b5c>
					HILITE(r, c);
					break;
				}
				else break;
			}
			break;
 8001cac:	00052506 	br	8003144 <checkMove+0x2884>
		case ROOK:
			r = initRow - 1;
 8001cb0:	e0bffe03 	ldbu	r2,-8(fp)
 8001cb4:	10bfffc4 	addi	r2,r2,-1
 8001cb8:	e0bffb15 	stw	r2,-20(fp)
			c = initCol;
 8001cbc:	e0bfff03 	ldbu	r2,-4(fp)
 8001cc0:	e0bffc15 	stw	r2,-16(fp)
			while (r >= 0) {
 8001cc4:	00004a06 	br	8001df0 <checkMove+0x1530>
				if (CHECK_SQUARE_EMPTY(r, c)) {
 8001cc8:	d0e00017 	ldw	r3,-32768(gp)
 8001ccc:	e0bffb17 	ldw	r2,-20(fp)
 8001cd0:	100890fa 	slli	r4,r2,3
 8001cd4:	e0bffc17 	ldw	r2,-16(fp)
 8001cd8:	2085883a 	add	r2,r4,r2
 8001cdc:	1885883a 	add	r2,r3,r2
 8001ce0:	10800003 	ldbu	r2,0(r2)
 8001ce4:	10803fcc 	andi	r2,r2,255
 8001ce8:	108003cc 	andi	r2,r2,15
 8001cec:	10800318 	cmpnei	r2,r2,12
 8001cf0:	1000161e 	bne	r2,zero,8001d4c <checkMove+0x148c>
					HILITE(r, c);
 8001cf4:	d0e00017 	ldw	r3,-32768(gp)
 8001cf8:	e0bffb17 	ldw	r2,-20(fp)
 8001cfc:	100890fa 	slli	r4,r2,3
 8001d00:	e0bffc17 	ldw	r2,-16(fp)
 8001d04:	2085883a 	add	r2,r4,r2
 8001d08:	d1600017 	ldw	r5,-32768(gp)
 8001d0c:	e13ffb17 	ldw	r4,-20(fp)
 8001d10:	200c90fa 	slli	r6,r4,3
 8001d14:	e13ffc17 	ldw	r4,-16(fp)
 8001d18:	3109883a 	add	r4,r6,r4
 8001d1c:	2909883a 	add	r4,r5,r4
 8001d20:	21000003 	ldbu	r4,0(r4)
 8001d24:	21000414 	ori	r4,r4,16
 8001d28:	1885883a 	add	r2,r3,r2
 8001d2c:	11000005 	stb	r4,0(r2)
 8001d30:	e0bffd03 	ldbu	r2,-12(fp)
 8001d34:	10800044 	addi	r2,r2,1
 8001d38:	e0bffd05 	stb	r2,-12(fp)
					r--;
 8001d3c:	e0bffb17 	ldw	r2,-20(fp)
 8001d40:	10bfffc4 	addi	r2,r2,-1
 8001d44:	e0bffb15 	stw	r2,-20(fp)
 8001d48:	00002906 	br	8001df0 <checkMove+0x1530>
				}
				else if (CHECK_SQUARE_ENEMY(r ,c ,color)) {
 8001d4c:	d0e00017 	ldw	r3,-32768(gp)
 8001d50:	e0bffb17 	ldw	r2,-20(fp)
 8001d54:	100890fa 	slli	r4,r2,3
 8001d58:	e0bffc17 	ldw	r2,-16(fp)
 8001d5c:	2085883a 	add	r2,r4,r2
 8001d60:	1885883a 	add	r2,r3,r2
 8001d64:	10800003 	ldbu	r2,0(r2)
 8001d68:	10803fcc 	andi	r2,r2,255
 8001d6c:	108003cc 	andi	r2,r2,15
 8001d70:	10800320 	cmpeqi	r2,r2,12
 8001d74:	1000201e 	bne	r2,zero,8001df8 <checkMove+0x1538>
 8001d78:	d0e00017 	ldw	r3,-32768(gp)
 8001d7c:	e0bffb17 	ldw	r2,-20(fp)
 8001d80:	100890fa 	slli	r4,r2,3
 8001d84:	e0bffc17 	ldw	r2,-16(fp)
 8001d88:	2085883a 	add	r2,r4,r2
 8001d8c:	1885883a 	add	r2,r3,r2
 8001d90:	10800003 	ldbu	r2,0(r2)
 8001d94:	10803fcc 	andi	r2,r2,255
 8001d98:	10c0004c 	andi	r3,r2,1
 8001d9c:	e0bffd83 	ldbu	r2,-10(fp)
 8001da0:	18801526 	beq	r3,r2,8001df8 <checkMove+0x1538>
					HILITE(r, c);
 8001da4:	d0e00017 	ldw	r3,-32768(gp)
 8001da8:	e0bffb17 	ldw	r2,-20(fp)
 8001dac:	100890fa 	slli	r4,r2,3
 8001db0:	e0bffc17 	ldw	r2,-16(fp)
 8001db4:	2085883a 	add	r2,r4,r2
 8001db8:	d1600017 	ldw	r5,-32768(gp)
 8001dbc:	e13ffb17 	ldw	r4,-20(fp)
 8001dc0:	200c90fa 	slli	r6,r4,3
 8001dc4:	e13ffc17 	ldw	r4,-16(fp)
 8001dc8:	3109883a 	add	r4,r6,r4
 8001dcc:	2909883a 	add	r4,r5,r4
 8001dd0:	21000003 	ldbu	r4,0(r4)
 8001dd4:	21000414 	ori	r4,r4,16
 8001dd8:	1885883a 	add	r2,r3,r2
 8001ddc:	11000005 	stb	r4,0(r2)
 8001de0:	e0bffd03 	ldbu	r2,-12(fp)
 8001de4:	10800044 	addi	r2,r2,1
 8001de8:	e0bffd05 	stb	r2,-12(fp)
					break;
 8001dec:	00000206 	br	8001df8 <checkMove+0x1538>
			}
			break;
		case ROOK:
			r = initRow - 1;
			c = initCol;
			while (r >= 0) {
 8001df0:	e0bffb17 	ldw	r2,-20(fp)
 8001df4:	103fb40e 	bge	r2,zero,8001cc8 <__alt_data_end+0xfc001cc8>
					break;
				}
				else break;
			}

			r = initRow + 1;
 8001df8:	e0bffe03 	ldbu	r2,-8(fp)
 8001dfc:	10800044 	addi	r2,r2,1
 8001e00:	e0bffb15 	stw	r2,-20(fp)
			c = initCol;
 8001e04:	e0bfff03 	ldbu	r2,-4(fp)
 8001e08:	e0bffc15 	stw	r2,-16(fp)
			while (r < COLUMNS) {
 8001e0c:	00004a06 	br	8001f38 <checkMove+0x1678>
				if (CHECK_SQUARE_EMPTY(r, c)) {
 8001e10:	d0e00017 	ldw	r3,-32768(gp)
 8001e14:	e0bffb17 	ldw	r2,-20(fp)
 8001e18:	100890fa 	slli	r4,r2,3
 8001e1c:	e0bffc17 	ldw	r2,-16(fp)
 8001e20:	2085883a 	add	r2,r4,r2
 8001e24:	1885883a 	add	r2,r3,r2
 8001e28:	10800003 	ldbu	r2,0(r2)
 8001e2c:	10803fcc 	andi	r2,r2,255
 8001e30:	108003cc 	andi	r2,r2,15
 8001e34:	10800318 	cmpnei	r2,r2,12
 8001e38:	1000161e 	bne	r2,zero,8001e94 <checkMove+0x15d4>
					HILITE(r, c);
 8001e3c:	d0e00017 	ldw	r3,-32768(gp)
 8001e40:	e0bffb17 	ldw	r2,-20(fp)
 8001e44:	100890fa 	slli	r4,r2,3
 8001e48:	e0bffc17 	ldw	r2,-16(fp)
 8001e4c:	2085883a 	add	r2,r4,r2
 8001e50:	d1600017 	ldw	r5,-32768(gp)
 8001e54:	e13ffb17 	ldw	r4,-20(fp)
 8001e58:	200c90fa 	slli	r6,r4,3
 8001e5c:	e13ffc17 	ldw	r4,-16(fp)
 8001e60:	3109883a 	add	r4,r6,r4
 8001e64:	2909883a 	add	r4,r5,r4
 8001e68:	21000003 	ldbu	r4,0(r4)
 8001e6c:	21000414 	ori	r4,r4,16
 8001e70:	1885883a 	add	r2,r3,r2
 8001e74:	11000005 	stb	r4,0(r2)
 8001e78:	e0bffd03 	ldbu	r2,-12(fp)
 8001e7c:	10800044 	addi	r2,r2,1
 8001e80:	e0bffd05 	stb	r2,-12(fp)
					r++;
 8001e84:	e0bffb17 	ldw	r2,-20(fp)
 8001e88:	10800044 	addi	r2,r2,1
 8001e8c:	e0bffb15 	stw	r2,-20(fp)
 8001e90:	00002906 	br	8001f38 <checkMove+0x1678>
				}
				else if (CHECK_SQUARE_ENEMY(r ,c ,color)) {
 8001e94:	d0e00017 	ldw	r3,-32768(gp)
 8001e98:	e0bffb17 	ldw	r2,-20(fp)
 8001e9c:	100890fa 	slli	r4,r2,3
 8001ea0:	e0bffc17 	ldw	r2,-16(fp)
 8001ea4:	2085883a 	add	r2,r4,r2
 8001ea8:	1885883a 	add	r2,r3,r2
 8001eac:	10800003 	ldbu	r2,0(r2)
 8001eb0:	10803fcc 	andi	r2,r2,255
 8001eb4:	108003cc 	andi	r2,r2,15
 8001eb8:	10800320 	cmpeqi	r2,r2,12
 8001ebc:	1000211e 	bne	r2,zero,8001f44 <checkMove+0x1684>
 8001ec0:	d0e00017 	ldw	r3,-32768(gp)
 8001ec4:	e0bffb17 	ldw	r2,-20(fp)
 8001ec8:	100890fa 	slli	r4,r2,3
 8001ecc:	e0bffc17 	ldw	r2,-16(fp)
 8001ed0:	2085883a 	add	r2,r4,r2
 8001ed4:	1885883a 	add	r2,r3,r2
 8001ed8:	10800003 	ldbu	r2,0(r2)
 8001edc:	10803fcc 	andi	r2,r2,255
 8001ee0:	10c0004c 	andi	r3,r2,1
 8001ee4:	e0bffd83 	ldbu	r2,-10(fp)
 8001ee8:	18801626 	beq	r3,r2,8001f44 <checkMove+0x1684>
					HILITE(r, c);
 8001eec:	d0e00017 	ldw	r3,-32768(gp)
 8001ef0:	e0bffb17 	ldw	r2,-20(fp)
 8001ef4:	100890fa 	slli	r4,r2,3
 8001ef8:	e0bffc17 	ldw	r2,-16(fp)
 8001efc:	2085883a 	add	r2,r4,r2
 8001f00:	d1600017 	ldw	r5,-32768(gp)
 8001f04:	e13ffb17 	ldw	r4,-20(fp)
 8001f08:	200c90fa 	slli	r6,r4,3
 8001f0c:	e13ffc17 	ldw	r4,-16(fp)
 8001f10:	3109883a 	add	r4,r6,r4
 8001f14:	2909883a 	add	r4,r5,r4
 8001f18:	21000003 	ldbu	r4,0(r4)
 8001f1c:	21000414 	ori	r4,r4,16
 8001f20:	1885883a 	add	r2,r3,r2
 8001f24:	11000005 	stb	r4,0(r2)
 8001f28:	e0bffd03 	ldbu	r2,-12(fp)
 8001f2c:	10800044 	addi	r2,r2,1
 8001f30:	e0bffd05 	stb	r2,-12(fp)
					break;
 8001f34:	00000306 	br	8001f44 <checkMove+0x1684>
				else break;
			}

			r = initRow + 1;
			c = initCol;
			while (r < COLUMNS) {
 8001f38:	e0bffb17 	ldw	r2,-20(fp)
 8001f3c:	10800210 	cmplti	r2,r2,8
 8001f40:	103fb31e 	bne	r2,zero,8001e10 <__alt_data_end+0xfc001e10>
					break;
				}
				else break;
			}

			r = initRow;
 8001f44:	e0bffe03 	ldbu	r2,-8(fp)
 8001f48:	e0bffb15 	stw	r2,-20(fp)
			c = initCol - 1;
 8001f4c:	e0bfff03 	ldbu	r2,-4(fp)
 8001f50:	10bfffc4 	addi	r2,r2,-1
 8001f54:	e0bffc15 	stw	r2,-16(fp)
			while (c >= 0) {
 8001f58:	00004a06 	br	8002084 <checkMove+0x17c4>
				if (CHECK_SQUARE_EMPTY(r, c)) {
 8001f5c:	d0e00017 	ldw	r3,-32768(gp)
 8001f60:	e0bffb17 	ldw	r2,-20(fp)
 8001f64:	100890fa 	slli	r4,r2,3
 8001f68:	e0bffc17 	ldw	r2,-16(fp)
 8001f6c:	2085883a 	add	r2,r4,r2
 8001f70:	1885883a 	add	r2,r3,r2
 8001f74:	10800003 	ldbu	r2,0(r2)
 8001f78:	10803fcc 	andi	r2,r2,255
 8001f7c:	108003cc 	andi	r2,r2,15
 8001f80:	10800318 	cmpnei	r2,r2,12
 8001f84:	1000161e 	bne	r2,zero,8001fe0 <checkMove+0x1720>
					HILITE(r,c);
 8001f88:	d0e00017 	ldw	r3,-32768(gp)
 8001f8c:	e0bffb17 	ldw	r2,-20(fp)
 8001f90:	100890fa 	slli	r4,r2,3
 8001f94:	e0bffc17 	ldw	r2,-16(fp)
 8001f98:	2085883a 	add	r2,r4,r2
 8001f9c:	d1600017 	ldw	r5,-32768(gp)
 8001fa0:	e13ffb17 	ldw	r4,-20(fp)
 8001fa4:	200c90fa 	slli	r6,r4,3
 8001fa8:	e13ffc17 	ldw	r4,-16(fp)
 8001fac:	3109883a 	add	r4,r6,r4
 8001fb0:	2909883a 	add	r4,r5,r4
 8001fb4:	21000003 	ldbu	r4,0(r4)
 8001fb8:	21000414 	ori	r4,r4,16
 8001fbc:	1885883a 	add	r2,r3,r2
 8001fc0:	11000005 	stb	r4,0(r2)
 8001fc4:	e0bffd03 	ldbu	r2,-12(fp)
 8001fc8:	10800044 	addi	r2,r2,1
 8001fcc:	e0bffd05 	stb	r2,-12(fp)
					c--;
 8001fd0:	e0bffc17 	ldw	r2,-16(fp)
 8001fd4:	10bfffc4 	addi	r2,r2,-1
 8001fd8:	e0bffc15 	stw	r2,-16(fp)
 8001fdc:	00002906 	br	8002084 <checkMove+0x17c4>
				}
				else if (CHECK_SQUARE_ENEMY(r ,c ,color)) {
 8001fe0:	d0e00017 	ldw	r3,-32768(gp)
 8001fe4:	e0bffb17 	ldw	r2,-20(fp)
 8001fe8:	100890fa 	slli	r4,r2,3
 8001fec:	e0bffc17 	ldw	r2,-16(fp)
 8001ff0:	2085883a 	add	r2,r4,r2
 8001ff4:	1885883a 	add	r2,r3,r2
 8001ff8:	10800003 	ldbu	r2,0(r2)
 8001ffc:	10803fcc 	andi	r2,r2,255
 8002000:	108003cc 	andi	r2,r2,15
 8002004:	10800320 	cmpeqi	r2,r2,12
 8002008:	1000201e 	bne	r2,zero,800208c <checkMove+0x17cc>
 800200c:	d0e00017 	ldw	r3,-32768(gp)
 8002010:	e0bffb17 	ldw	r2,-20(fp)
 8002014:	100890fa 	slli	r4,r2,3
 8002018:	e0bffc17 	ldw	r2,-16(fp)
 800201c:	2085883a 	add	r2,r4,r2
 8002020:	1885883a 	add	r2,r3,r2
 8002024:	10800003 	ldbu	r2,0(r2)
 8002028:	10803fcc 	andi	r2,r2,255
 800202c:	10c0004c 	andi	r3,r2,1
 8002030:	e0bffd83 	ldbu	r2,-10(fp)
 8002034:	18801526 	beq	r3,r2,800208c <checkMove+0x17cc>
					HILITE(r,c);
 8002038:	d0e00017 	ldw	r3,-32768(gp)
 800203c:	e0bffb17 	ldw	r2,-20(fp)
 8002040:	100890fa 	slli	r4,r2,3
 8002044:	e0bffc17 	ldw	r2,-16(fp)
 8002048:	2085883a 	add	r2,r4,r2
 800204c:	d1600017 	ldw	r5,-32768(gp)
 8002050:	e13ffb17 	ldw	r4,-20(fp)
 8002054:	200c90fa 	slli	r6,r4,3
 8002058:	e13ffc17 	ldw	r4,-16(fp)
 800205c:	3109883a 	add	r4,r6,r4
 8002060:	2909883a 	add	r4,r5,r4
 8002064:	21000003 	ldbu	r4,0(r4)
 8002068:	21000414 	ori	r4,r4,16
 800206c:	1885883a 	add	r2,r3,r2
 8002070:	11000005 	stb	r4,0(r2)
 8002074:	e0bffd03 	ldbu	r2,-12(fp)
 8002078:	10800044 	addi	r2,r2,1
 800207c:	e0bffd05 	stb	r2,-12(fp)
					break;
 8002080:	00000206 	br	800208c <checkMove+0x17cc>
				else break;
			}

			r = initRow;
			c = initCol - 1;
			while (c >= 0) {
 8002084:	e0bffc17 	ldw	r2,-16(fp)
 8002088:	103fb40e 	bge	r2,zero,8001f5c <__alt_data_end+0xfc001f5c>
					break;
				}
				else break;
			}

			r = initRow;
 800208c:	e0bffe03 	ldbu	r2,-8(fp)
 8002090:	e0bffb15 	stw	r2,-20(fp)
			c = initCol + 1;
 8002094:	e0bfff03 	ldbu	r2,-4(fp)
 8002098:	10800044 	addi	r2,r2,1
 800209c:	e0bffc15 	stw	r2,-16(fp)
			while (c < COLUMNS) {
 80020a0:	00004b06 	br	80021d0 <checkMove+0x1910>
				if (CHECK_SQUARE_EMPTY(r, c)) {
 80020a4:	d0e00017 	ldw	r3,-32768(gp)
 80020a8:	e0bffb17 	ldw	r2,-20(fp)
 80020ac:	100890fa 	slli	r4,r2,3
 80020b0:	e0bffc17 	ldw	r2,-16(fp)
 80020b4:	2085883a 	add	r2,r4,r2
 80020b8:	1885883a 	add	r2,r3,r2
 80020bc:	10800003 	ldbu	r2,0(r2)
 80020c0:	10803fcc 	andi	r2,r2,255
 80020c4:	108003cc 	andi	r2,r2,15
 80020c8:	10800318 	cmpnei	r2,r2,12
 80020cc:	1000161e 	bne	r2,zero,8002128 <checkMove+0x1868>
					HILITE(r,c);
 80020d0:	d0e00017 	ldw	r3,-32768(gp)
 80020d4:	e0bffb17 	ldw	r2,-20(fp)
 80020d8:	100890fa 	slli	r4,r2,3
 80020dc:	e0bffc17 	ldw	r2,-16(fp)
 80020e0:	2085883a 	add	r2,r4,r2
 80020e4:	d1600017 	ldw	r5,-32768(gp)
 80020e8:	e13ffb17 	ldw	r4,-20(fp)
 80020ec:	200c90fa 	slli	r6,r4,3
 80020f0:	e13ffc17 	ldw	r4,-16(fp)
 80020f4:	3109883a 	add	r4,r6,r4
 80020f8:	2909883a 	add	r4,r5,r4
 80020fc:	21000003 	ldbu	r4,0(r4)
 8002100:	21000414 	ori	r4,r4,16
 8002104:	1885883a 	add	r2,r3,r2
 8002108:	11000005 	stb	r4,0(r2)
 800210c:	e0bffd03 	ldbu	r2,-12(fp)
 8002110:	10800044 	addi	r2,r2,1
 8002114:	e0bffd05 	stb	r2,-12(fp)
					c++;
 8002118:	e0bffc17 	ldw	r2,-16(fp)
 800211c:	10800044 	addi	r2,r2,1
 8002120:	e0bffc15 	stw	r2,-16(fp)
 8002124:	00002a06 	br	80021d0 <checkMove+0x1910>
				}
				else if (CHECK_SQUARE_ENEMY(r ,c ,color)) {
 8002128:	d0e00017 	ldw	r3,-32768(gp)
 800212c:	e0bffb17 	ldw	r2,-20(fp)
 8002130:	100890fa 	slli	r4,r2,3
 8002134:	e0bffc17 	ldw	r2,-16(fp)
 8002138:	2085883a 	add	r2,r4,r2
 800213c:	1885883a 	add	r2,r3,r2
 8002140:	10800003 	ldbu	r2,0(r2)
 8002144:	10803fcc 	andi	r2,r2,255
 8002148:	108003cc 	andi	r2,r2,15
 800214c:	10800320 	cmpeqi	r2,r2,12
 8002150:	1003fe1e 	bne	r2,zero,800314c <checkMove+0x288c>
 8002154:	d0e00017 	ldw	r3,-32768(gp)
 8002158:	e0bffb17 	ldw	r2,-20(fp)
 800215c:	100890fa 	slli	r4,r2,3
 8002160:	e0bffc17 	ldw	r2,-16(fp)
 8002164:	2085883a 	add	r2,r4,r2
 8002168:	1885883a 	add	r2,r3,r2
 800216c:	10800003 	ldbu	r2,0(r2)
 8002170:	10803fcc 	andi	r2,r2,255
 8002174:	10c0004c 	andi	r3,r2,1
 8002178:	e0bffd83 	ldbu	r2,-10(fp)
 800217c:	1883f326 	beq	r3,r2,800314c <checkMove+0x288c>
					HILITE(r,c);
 8002180:	d0e00017 	ldw	r3,-32768(gp)
 8002184:	e0bffb17 	ldw	r2,-20(fp)
 8002188:	100890fa 	slli	r4,r2,3
 800218c:	e0bffc17 	ldw	r2,-16(fp)
 8002190:	2085883a 	add	r2,r4,r2
 8002194:	d1600017 	ldw	r5,-32768(gp)
 8002198:	e13ffb17 	ldw	r4,-20(fp)
 800219c:	200c90fa 	slli	r6,r4,3
 80021a0:	e13ffc17 	ldw	r4,-16(fp)
 80021a4:	3109883a 	add	r4,r6,r4
 80021a8:	2909883a 	add	r4,r5,r4
 80021ac:	21000003 	ldbu	r4,0(r4)
 80021b0:	21000414 	ori	r4,r4,16
 80021b4:	1885883a 	add	r2,r3,r2
 80021b8:	11000005 	stb	r4,0(r2)
 80021bc:	e0bffd03 	ldbu	r2,-12(fp)
 80021c0:	10800044 	addi	r2,r2,1
 80021c4:	e0bffd05 	stb	r2,-12(fp)
					break;
 80021c8:	0001883a 	nop
				}
				else break;
			}
			break;
 80021cc:	0003df06 	br	800314c <checkMove+0x288c>
				else break;
			}

			r = initRow;
			c = initCol + 1;
			while (c < COLUMNS) {
 80021d0:	e0bffc17 	ldw	r2,-16(fp)
 80021d4:	10800210 	cmplti	r2,r2,8
 80021d8:	103fb21e 	bne	r2,zero,80020a4 <__alt_data_end+0xfc0020a4>
					HILITE(r,c);
					break;
				}
				else break;
			}
			break;
 80021dc:	0003db06 	br	800314c <checkMove+0x288c>
		case QUEEN:
			r = initRow - 1;
 80021e0:	e0bffe03 	ldbu	r2,-8(fp)
 80021e4:	10bfffc4 	addi	r2,r2,-1
 80021e8:	e0bffb15 	stw	r2,-20(fp)
			c = initCol - 1;
 80021ec:	e0bfff03 	ldbu	r2,-4(fp)
 80021f0:	10bfffc4 	addi	r2,r2,-1
 80021f4:	e0bffc15 	stw	r2,-16(fp)
			while (r >= 0 && c >= 0) {
 80021f8:	00004d06 	br	8002330 <checkMove+0x1a70>
				if (CHECK_SQUARE_EMPTY(r, c)) {
 80021fc:	d0e00017 	ldw	r3,-32768(gp)
 8002200:	e0bffb17 	ldw	r2,-20(fp)
 8002204:	100890fa 	slli	r4,r2,3
 8002208:	e0bffc17 	ldw	r2,-16(fp)
 800220c:	2085883a 	add	r2,r4,r2
 8002210:	1885883a 	add	r2,r3,r2
 8002214:	10800003 	ldbu	r2,0(r2)
 8002218:	10803fcc 	andi	r2,r2,255
 800221c:	108003cc 	andi	r2,r2,15
 8002220:	10800318 	cmpnei	r2,r2,12
 8002224:	1000191e 	bne	r2,zero,800228c <checkMove+0x19cc>
					HILITE(r,c);
 8002228:	d0e00017 	ldw	r3,-32768(gp)
 800222c:	e0bffb17 	ldw	r2,-20(fp)
 8002230:	100890fa 	slli	r4,r2,3
 8002234:	e0bffc17 	ldw	r2,-16(fp)
 8002238:	2085883a 	add	r2,r4,r2
 800223c:	d1600017 	ldw	r5,-32768(gp)
 8002240:	e13ffb17 	ldw	r4,-20(fp)
 8002244:	200c90fa 	slli	r6,r4,3
 8002248:	e13ffc17 	ldw	r4,-16(fp)
 800224c:	3109883a 	add	r4,r6,r4
 8002250:	2909883a 	add	r4,r5,r4
 8002254:	21000003 	ldbu	r4,0(r4)
 8002258:	21000414 	ori	r4,r4,16
 800225c:	1885883a 	add	r2,r3,r2
 8002260:	11000005 	stb	r4,0(r2)
 8002264:	e0bffd03 	ldbu	r2,-12(fp)
 8002268:	10800044 	addi	r2,r2,1
 800226c:	e0bffd05 	stb	r2,-12(fp)
					r--;
 8002270:	e0bffb17 	ldw	r2,-20(fp)
 8002274:	10bfffc4 	addi	r2,r2,-1
 8002278:	e0bffb15 	stw	r2,-20(fp)
					c--;
 800227c:	e0bffc17 	ldw	r2,-16(fp)
 8002280:	10bfffc4 	addi	r2,r2,-1
 8002284:	e0bffc15 	stw	r2,-16(fp)
 8002288:	00002906 	br	8002330 <checkMove+0x1a70>
				}
				else if (CHECK_SQUARE_ENEMY(r ,c ,color)) {
 800228c:	d0e00017 	ldw	r3,-32768(gp)
 8002290:	e0bffb17 	ldw	r2,-20(fp)
 8002294:	100890fa 	slli	r4,r2,3
 8002298:	e0bffc17 	ldw	r2,-16(fp)
 800229c:	2085883a 	add	r2,r4,r2
 80022a0:	1885883a 	add	r2,r3,r2
 80022a4:	10800003 	ldbu	r2,0(r2)
 80022a8:	10803fcc 	andi	r2,r2,255
 80022ac:	108003cc 	andi	r2,r2,15
 80022b0:	10800320 	cmpeqi	r2,r2,12
 80022b4:	1000221e 	bne	r2,zero,8002340 <checkMove+0x1a80>
 80022b8:	d0e00017 	ldw	r3,-32768(gp)
 80022bc:	e0bffb17 	ldw	r2,-20(fp)
 80022c0:	100890fa 	slli	r4,r2,3
 80022c4:	e0bffc17 	ldw	r2,-16(fp)
 80022c8:	2085883a 	add	r2,r4,r2
 80022cc:	1885883a 	add	r2,r3,r2
 80022d0:	10800003 	ldbu	r2,0(r2)
 80022d4:	10803fcc 	andi	r2,r2,255
 80022d8:	10c0004c 	andi	r3,r2,1
 80022dc:	e0bffd83 	ldbu	r2,-10(fp)
 80022e0:	18801726 	beq	r3,r2,8002340 <checkMove+0x1a80>
					HILITE(r,c);
 80022e4:	d0e00017 	ldw	r3,-32768(gp)
 80022e8:	e0bffb17 	ldw	r2,-20(fp)
 80022ec:	100890fa 	slli	r4,r2,3
 80022f0:	e0bffc17 	ldw	r2,-16(fp)
 80022f4:	2085883a 	add	r2,r4,r2
 80022f8:	d1600017 	ldw	r5,-32768(gp)
 80022fc:	e13ffb17 	ldw	r4,-20(fp)
 8002300:	200c90fa 	slli	r6,r4,3
 8002304:	e13ffc17 	ldw	r4,-16(fp)
 8002308:	3109883a 	add	r4,r6,r4
 800230c:	2909883a 	add	r4,r5,r4
 8002310:	21000003 	ldbu	r4,0(r4)
 8002314:	21000414 	ori	r4,r4,16
 8002318:	1885883a 	add	r2,r3,r2
 800231c:	11000005 	stb	r4,0(r2)
 8002320:	e0bffd03 	ldbu	r2,-12(fp)
 8002324:	10800044 	addi	r2,r2,1
 8002328:	e0bffd05 	stb	r2,-12(fp)
					break;
 800232c:	00000406 	br	8002340 <checkMove+0x1a80>
			}
			break;
		case QUEEN:
			r = initRow - 1;
			c = initCol - 1;
			while (r >= 0 && c >= 0) {
 8002330:	e0bffb17 	ldw	r2,-20(fp)
 8002334:	10000216 	blt	r2,zero,8002340 <checkMove+0x1a80>
 8002338:	e0bffc17 	ldw	r2,-16(fp)
 800233c:	103faf0e 	bge	r2,zero,80021fc <__alt_data_end+0xfc0021fc>
					break;
				}
				else break;
			}

			r = initRow + 1;
 8002340:	e0bffe03 	ldbu	r2,-8(fp)
 8002344:	10800044 	addi	r2,r2,1
 8002348:	e0bffb15 	stw	r2,-20(fp)
			c = initCol - 1;
 800234c:	e0bfff03 	ldbu	r2,-4(fp)
 8002350:	10bfffc4 	addi	r2,r2,-1
 8002354:	e0bffc15 	stw	r2,-16(fp)
			while (r < ROWS && c >= 0) {
 8002358:	00004d06 	br	8002490 <checkMove+0x1bd0>
				if (CHECK_SQUARE_EMPTY(r, c)) {
 800235c:	d0e00017 	ldw	r3,-32768(gp)
 8002360:	e0bffb17 	ldw	r2,-20(fp)
 8002364:	100890fa 	slli	r4,r2,3
 8002368:	e0bffc17 	ldw	r2,-16(fp)
 800236c:	2085883a 	add	r2,r4,r2
 8002370:	1885883a 	add	r2,r3,r2
 8002374:	10800003 	ldbu	r2,0(r2)
 8002378:	10803fcc 	andi	r2,r2,255
 800237c:	108003cc 	andi	r2,r2,15
 8002380:	10800318 	cmpnei	r2,r2,12
 8002384:	1000191e 	bne	r2,zero,80023ec <checkMove+0x1b2c>
					HILITE(r,c);
 8002388:	d0e00017 	ldw	r3,-32768(gp)
 800238c:	e0bffb17 	ldw	r2,-20(fp)
 8002390:	100890fa 	slli	r4,r2,3
 8002394:	e0bffc17 	ldw	r2,-16(fp)
 8002398:	2085883a 	add	r2,r4,r2
 800239c:	d1600017 	ldw	r5,-32768(gp)
 80023a0:	e13ffb17 	ldw	r4,-20(fp)
 80023a4:	200c90fa 	slli	r6,r4,3
 80023a8:	e13ffc17 	ldw	r4,-16(fp)
 80023ac:	3109883a 	add	r4,r6,r4
 80023b0:	2909883a 	add	r4,r5,r4
 80023b4:	21000003 	ldbu	r4,0(r4)
 80023b8:	21000414 	ori	r4,r4,16
 80023bc:	1885883a 	add	r2,r3,r2
 80023c0:	11000005 	stb	r4,0(r2)
 80023c4:	e0bffd03 	ldbu	r2,-12(fp)
 80023c8:	10800044 	addi	r2,r2,1
 80023cc:	e0bffd05 	stb	r2,-12(fp)
					r++;
 80023d0:	e0bffb17 	ldw	r2,-20(fp)
 80023d4:	10800044 	addi	r2,r2,1
 80023d8:	e0bffb15 	stw	r2,-20(fp)
					c--;
 80023dc:	e0bffc17 	ldw	r2,-16(fp)
 80023e0:	10bfffc4 	addi	r2,r2,-1
 80023e4:	e0bffc15 	stw	r2,-16(fp)
 80023e8:	00002906 	br	8002490 <checkMove+0x1bd0>
				}
				else if (CHECK_SQUARE_ENEMY(r ,c ,color)) {
 80023ec:	d0e00017 	ldw	r3,-32768(gp)
 80023f0:	e0bffb17 	ldw	r2,-20(fp)
 80023f4:	100890fa 	slli	r4,r2,3
 80023f8:	e0bffc17 	ldw	r2,-16(fp)
 80023fc:	2085883a 	add	r2,r4,r2
 8002400:	1885883a 	add	r2,r3,r2
 8002404:	10800003 	ldbu	r2,0(r2)
 8002408:	10803fcc 	andi	r2,r2,255
 800240c:	108003cc 	andi	r2,r2,15
 8002410:	10800320 	cmpeqi	r2,r2,12
 8002414:	1000231e 	bne	r2,zero,80024a4 <checkMove+0x1be4>
 8002418:	d0e00017 	ldw	r3,-32768(gp)
 800241c:	e0bffb17 	ldw	r2,-20(fp)
 8002420:	100890fa 	slli	r4,r2,3
 8002424:	e0bffc17 	ldw	r2,-16(fp)
 8002428:	2085883a 	add	r2,r4,r2
 800242c:	1885883a 	add	r2,r3,r2
 8002430:	10800003 	ldbu	r2,0(r2)
 8002434:	10803fcc 	andi	r2,r2,255
 8002438:	10c0004c 	andi	r3,r2,1
 800243c:	e0bffd83 	ldbu	r2,-10(fp)
 8002440:	18801826 	beq	r3,r2,80024a4 <checkMove+0x1be4>
					HILITE(r,c);
 8002444:	d0e00017 	ldw	r3,-32768(gp)
 8002448:	e0bffb17 	ldw	r2,-20(fp)
 800244c:	100890fa 	slli	r4,r2,3
 8002450:	e0bffc17 	ldw	r2,-16(fp)
 8002454:	2085883a 	add	r2,r4,r2
 8002458:	d1600017 	ldw	r5,-32768(gp)
 800245c:	e13ffb17 	ldw	r4,-20(fp)
 8002460:	200c90fa 	slli	r6,r4,3
 8002464:	e13ffc17 	ldw	r4,-16(fp)
 8002468:	3109883a 	add	r4,r6,r4
 800246c:	2909883a 	add	r4,r5,r4
 8002470:	21000003 	ldbu	r4,0(r4)
 8002474:	21000414 	ori	r4,r4,16
 8002478:	1885883a 	add	r2,r3,r2
 800247c:	11000005 	stb	r4,0(r2)
 8002480:	e0bffd03 	ldbu	r2,-12(fp)
 8002484:	10800044 	addi	r2,r2,1
 8002488:	e0bffd05 	stb	r2,-12(fp)
					break;
 800248c:	00000506 	br	80024a4 <checkMove+0x1be4>
				else break;
			}

			r = initRow + 1;
			c = initCol - 1;
			while (r < ROWS && c >= 0) {
 8002490:	e0bffb17 	ldw	r2,-20(fp)
 8002494:	10800208 	cmpgei	r2,r2,8
 8002498:	1000021e 	bne	r2,zero,80024a4 <checkMove+0x1be4>
 800249c:	e0bffc17 	ldw	r2,-16(fp)
 80024a0:	103fae0e 	bge	r2,zero,800235c <__alt_data_end+0xfc00235c>
					break;
				}
				else break;
			}

			r = initRow - 1;
 80024a4:	e0bffe03 	ldbu	r2,-8(fp)
 80024a8:	10bfffc4 	addi	r2,r2,-1
 80024ac:	e0bffb15 	stw	r2,-20(fp)
			c = initCol + 1;
 80024b0:	e0bfff03 	ldbu	r2,-4(fp)
 80024b4:	10800044 	addi	r2,r2,1
 80024b8:	e0bffc15 	stw	r2,-16(fp)
			while (r >= 0 && c < COLUMNS) {
 80024bc:	00004d06 	br	80025f4 <checkMove+0x1d34>
				if (CHECK_SQUARE_EMPTY(r, c)) {
 80024c0:	d0e00017 	ldw	r3,-32768(gp)
 80024c4:	e0bffb17 	ldw	r2,-20(fp)
 80024c8:	100890fa 	slli	r4,r2,3
 80024cc:	e0bffc17 	ldw	r2,-16(fp)
 80024d0:	2085883a 	add	r2,r4,r2
 80024d4:	1885883a 	add	r2,r3,r2
 80024d8:	10800003 	ldbu	r2,0(r2)
 80024dc:	10803fcc 	andi	r2,r2,255
 80024e0:	108003cc 	andi	r2,r2,15
 80024e4:	10800318 	cmpnei	r2,r2,12
 80024e8:	1000191e 	bne	r2,zero,8002550 <checkMove+0x1c90>
					HILITE(r,c);
 80024ec:	d0e00017 	ldw	r3,-32768(gp)
 80024f0:	e0bffb17 	ldw	r2,-20(fp)
 80024f4:	100890fa 	slli	r4,r2,3
 80024f8:	e0bffc17 	ldw	r2,-16(fp)
 80024fc:	2085883a 	add	r2,r4,r2
 8002500:	d1600017 	ldw	r5,-32768(gp)
 8002504:	e13ffb17 	ldw	r4,-20(fp)
 8002508:	200c90fa 	slli	r6,r4,3
 800250c:	e13ffc17 	ldw	r4,-16(fp)
 8002510:	3109883a 	add	r4,r6,r4
 8002514:	2909883a 	add	r4,r5,r4
 8002518:	21000003 	ldbu	r4,0(r4)
 800251c:	21000414 	ori	r4,r4,16
 8002520:	1885883a 	add	r2,r3,r2
 8002524:	11000005 	stb	r4,0(r2)
 8002528:	e0bffd03 	ldbu	r2,-12(fp)
 800252c:	10800044 	addi	r2,r2,1
 8002530:	e0bffd05 	stb	r2,-12(fp)
					r--;
 8002534:	e0bffb17 	ldw	r2,-20(fp)
 8002538:	10bfffc4 	addi	r2,r2,-1
 800253c:	e0bffb15 	stw	r2,-20(fp)
					c++;
 8002540:	e0bffc17 	ldw	r2,-16(fp)
 8002544:	10800044 	addi	r2,r2,1
 8002548:	e0bffc15 	stw	r2,-16(fp)
 800254c:	00002906 	br	80025f4 <checkMove+0x1d34>
				}
				else if (CHECK_SQUARE_ENEMY(r ,c ,color)) {
 8002550:	d0e00017 	ldw	r3,-32768(gp)
 8002554:	e0bffb17 	ldw	r2,-20(fp)
 8002558:	100890fa 	slli	r4,r2,3
 800255c:	e0bffc17 	ldw	r2,-16(fp)
 8002560:	2085883a 	add	r2,r4,r2
 8002564:	1885883a 	add	r2,r3,r2
 8002568:	10800003 	ldbu	r2,0(r2)
 800256c:	10803fcc 	andi	r2,r2,255
 8002570:	108003cc 	andi	r2,r2,15
 8002574:	10800320 	cmpeqi	r2,r2,12
 8002578:	1000231e 	bne	r2,zero,8002608 <checkMove+0x1d48>
 800257c:	d0e00017 	ldw	r3,-32768(gp)
 8002580:	e0bffb17 	ldw	r2,-20(fp)
 8002584:	100890fa 	slli	r4,r2,3
 8002588:	e0bffc17 	ldw	r2,-16(fp)
 800258c:	2085883a 	add	r2,r4,r2
 8002590:	1885883a 	add	r2,r3,r2
 8002594:	10800003 	ldbu	r2,0(r2)
 8002598:	10803fcc 	andi	r2,r2,255
 800259c:	10c0004c 	andi	r3,r2,1
 80025a0:	e0bffd83 	ldbu	r2,-10(fp)
 80025a4:	18801826 	beq	r3,r2,8002608 <checkMove+0x1d48>
					HILITE(r,c);
 80025a8:	d0e00017 	ldw	r3,-32768(gp)
 80025ac:	e0bffb17 	ldw	r2,-20(fp)
 80025b0:	100890fa 	slli	r4,r2,3
 80025b4:	e0bffc17 	ldw	r2,-16(fp)
 80025b8:	2085883a 	add	r2,r4,r2
 80025bc:	d1600017 	ldw	r5,-32768(gp)
 80025c0:	e13ffb17 	ldw	r4,-20(fp)
 80025c4:	200c90fa 	slli	r6,r4,3
 80025c8:	e13ffc17 	ldw	r4,-16(fp)
 80025cc:	3109883a 	add	r4,r6,r4
 80025d0:	2909883a 	add	r4,r5,r4
 80025d4:	21000003 	ldbu	r4,0(r4)
 80025d8:	21000414 	ori	r4,r4,16
 80025dc:	1885883a 	add	r2,r3,r2
 80025e0:	11000005 	stb	r4,0(r2)
 80025e4:	e0bffd03 	ldbu	r2,-12(fp)
 80025e8:	10800044 	addi	r2,r2,1
 80025ec:	e0bffd05 	stb	r2,-12(fp)
					break;
 80025f0:	00000506 	br	8002608 <checkMove+0x1d48>
				else break;
			}

			r = initRow - 1;
			c = initCol + 1;
			while (r >= 0 && c < COLUMNS) {
 80025f4:	e0bffb17 	ldw	r2,-20(fp)
 80025f8:	10000316 	blt	r2,zero,8002608 <checkMove+0x1d48>
 80025fc:	e0bffc17 	ldw	r2,-16(fp)
 8002600:	10800210 	cmplti	r2,r2,8
 8002604:	103fae1e 	bne	r2,zero,80024c0 <__alt_data_end+0xfc0024c0>
					break;
				}
				else break;
			}

			r = initRow + 1;
 8002608:	e0bffe03 	ldbu	r2,-8(fp)
 800260c:	10800044 	addi	r2,r2,1
 8002610:	e0bffb15 	stw	r2,-20(fp)
			c = initCol + 1;
 8002614:	e0bfff03 	ldbu	r2,-4(fp)
 8002618:	10800044 	addi	r2,r2,1
 800261c:	e0bffc15 	stw	r2,-16(fp)
			while (r < ROWS && c < COLUMNS) {
 8002620:	00004d06 	br	8002758 <checkMove+0x1e98>
				if (CHECK_SQUARE_EMPTY(r, c)) {
 8002624:	d0e00017 	ldw	r3,-32768(gp)
 8002628:	e0bffb17 	ldw	r2,-20(fp)
 800262c:	100890fa 	slli	r4,r2,3
 8002630:	e0bffc17 	ldw	r2,-16(fp)
 8002634:	2085883a 	add	r2,r4,r2
 8002638:	1885883a 	add	r2,r3,r2
 800263c:	10800003 	ldbu	r2,0(r2)
 8002640:	10803fcc 	andi	r2,r2,255
 8002644:	108003cc 	andi	r2,r2,15
 8002648:	10800318 	cmpnei	r2,r2,12
 800264c:	1000191e 	bne	r2,zero,80026b4 <checkMove+0x1df4>
					HILITE(r,c);
 8002650:	d0e00017 	ldw	r3,-32768(gp)
 8002654:	e0bffb17 	ldw	r2,-20(fp)
 8002658:	100890fa 	slli	r4,r2,3
 800265c:	e0bffc17 	ldw	r2,-16(fp)
 8002660:	2085883a 	add	r2,r4,r2
 8002664:	d1600017 	ldw	r5,-32768(gp)
 8002668:	e13ffb17 	ldw	r4,-20(fp)
 800266c:	200c90fa 	slli	r6,r4,3
 8002670:	e13ffc17 	ldw	r4,-16(fp)
 8002674:	3109883a 	add	r4,r6,r4
 8002678:	2909883a 	add	r4,r5,r4
 800267c:	21000003 	ldbu	r4,0(r4)
 8002680:	21000414 	ori	r4,r4,16
 8002684:	1885883a 	add	r2,r3,r2
 8002688:	11000005 	stb	r4,0(r2)
 800268c:	e0bffd03 	ldbu	r2,-12(fp)
 8002690:	10800044 	addi	r2,r2,1
 8002694:	e0bffd05 	stb	r2,-12(fp)
					r++;
 8002698:	e0bffb17 	ldw	r2,-20(fp)
 800269c:	10800044 	addi	r2,r2,1
 80026a0:	e0bffb15 	stw	r2,-20(fp)
					c++;
 80026a4:	e0bffc17 	ldw	r2,-16(fp)
 80026a8:	10800044 	addi	r2,r2,1
 80026ac:	e0bffc15 	stw	r2,-16(fp)
 80026b0:	00002906 	br	8002758 <checkMove+0x1e98>
				}
				else if (CHECK_SQUARE_ENEMY(r ,c ,color)) {
 80026b4:	d0e00017 	ldw	r3,-32768(gp)
 80026b8:	e0bffb17 	ldw	r2,-20(fp)
 80026bc:	100890fa 	slli	r4,r2,3
 80026c0:	e0bffc17 	ldw	r2,-16(fp)
 80026c4:	2085883a 	add	r2,r4,r2
 80026c8:	1885883a 	add	r2,r3,r2
 80026cc:	10800003 	ldbu	r2,0(r2)
 80026d0:	10803fcc 	andi	r2,r2,255
 80026d4:	108003cc 	andi	r2,r2,15
 80026d8:	10800320 	cmpeqi	r2,r2,12
 80026dc:	1000241e 	bne	r2,zero,8002770 <checkMove+0x1eb0>
 80026e0:	d0e00017 	ldw	r3,-32768(gp)
 80026e4:	e0bffb17 	ldw	r2,-20(fp)
 80026e8:	100890fa 	slli	r4,r2,3
 80026ec:	e0bffc17 	ldw	r2,-16(fp)
 80026f0:	2085883a 	add	r2,r4,r2
 80026f4:	1885883a 	add	r2,r3,r2
 80026f8:	10800003 	ldbu	r2,0(r2)
 80026fc:	10803fcc 	andi	r2,r2,255
 8002700:	10c0004c 	andi	r3,r2,1
 8002704:	e0bffd83 	ldbu	r2,-10(fp)
 8002708:	18801926 	beq	r3,r2,8002770 <checkMove+0x1eb0>
					HILITE(r,c);
 800270c:	d0e00017 	ldw	r3,-32768(gp)
 8002710:	e0bffb17 	ldw	r2,-20(fp)
 8002714:	100890fa 	slli	r4,r2,3
 8002718:	e0bffc17 	ldw	r2,-16(fp)
 800271c:	2085883a 	add	r2,r4,r2
 8002720:	d1600017 	ldw	r5,-32768(gp)
 8002724:	e13ffb17 	ldw	r4,-20(fp)
 8002728:	200c90fa 	slli	r6,r4,3
 800272c:	e13ffc17 	ldw	r4,-16(fp)
 8002730:	3109883a 	add	r4,r6,r4
 8002734:	2909883a 	add	r4,r5,r4
 8002738:	21000003 	ldbu	r4,0(r4)
 800273c:	21000414 	ori	r4,r4,16
 8002740:	1885883a 	add	r2,r3,r2
 8002744:	11000005 	stb	r4,0(r2)
 8002748:	e0bffd03 	ldbu	r2,-12(fp)
 800274c:	10800044 	addi	r2,r2,1
 8002750:	e0bffd05 	stb	r2,-12(fp)
					break;
 8002754:	00000606 	br	8002770 <checkMove+0x1eb0>
				else break;
			}

			r = initRow + 1;
			c = initCol + 1;
			while (r < ROWS && c < COLUMNS) {
 8002758:	e0bffb17 	ldw	r2,-20(fp)
 800275c:	10800208 	cmpgei	r2,r2,8
 8002760:	1000031e 	bne	r2,zero,8002770 <checkMove+0x1eb0>
 8002764:	e0bffc17 	ldw	r2,-16(fp)
 8002768:	10800210 	cmplti	r2,r2,8
 800276c:	103fad1e 	bne	r2,zero,8002624 <__alt_data_end+0xfc002624>
					break;
				}
				else break;
			}

			r = initRow - 1;
 8002770:	e0bffe03 	ldbu	r2,-8(fp)
 8002774:	10bfffc4 	addi	r2,r2,-1
 8002778:	e0bffb15 	stw	r2,-20(fp)
			c = initCol;
 800277c:	e0bfff03 	ldbu	r2,-4(fp)
 8002780:	e0bffc15 	stw	r2,-16(fp)
			while (r >= 0) {
 8002784:	00004a06 	br	80028b0 <checkMove+0x1ff0>
				if (CHECK_SQUARE_EMPTY(r, c)) {
 8002788:	d0e00017 	ldw	r3,-32768(gp)
 800278c:	e0bffb17 	ldw	r2,-20(fp)
 8002790:	100890fa 	slli	r4,r2,3
 8002794:	e0bffc17 	ldw	r2,-16(fp)
 8002798:	2085883a 	add	r2,r4,r2
 800279c:	1885883a 	add	r2,r3,r2
 80027a0:	10800003 	ldbu	r2,0(r2)
 80027a4:	10803fcc 	andi	r2,r2,255
 80027a8:	108003cc 	andi	r2,r2,15
 80027ac:	10800318 	cmpnei	r2,r2,12
 80027b0:	1000161e 	bne	r2,zero,800280c <checkMove+0x1f4c>
					HILITE(r,c);
 80027b4:	d0e00017 	ldw	r3,-32768(gp)
 80027b8:	e0bffb17 	ldw	r2,-20(fp)
 80027bc:	100890fa 	slli	r4,r2,3
 80027c0:	e0bffc17 	ldw	r2,-16(fp)
 80027c4:	2085883a 	add	r2,r4,r2
 80027c8:	d1600017 	ldw	r5,-32768(gp)
 80027cc:	e13ffb17 	ldw	r4,-20(fp)
 80027d0:	200c90fa 	slli	r6,r4,3
 80027d4:	e13ffc17 	ldw	r4,-16(fp)
 80027d8:	3109883a 	add	r4,r6,r4
 80027dc:	2909883a 	add	r4,r5,r4
 80027e0:	21000003 	ldbu	r4,0(r4)
 80027e4:	21000414 	ori	r4,r4,16
 80027e8:	1885883a 	add	r2,r3,r2
 80027ec:	11000005 	stb	r4,0(r2)
 80027f0:	e0bffd03 	ldbu	r2,-12(fp)
 80027f4:	10800044 	addi	r2,r2,1
 80027f8:	e0bffd05 	stb	r2,-12(fp)
					r--;
 80027fc:	e0bffb17 	ldw	r2,-20(fp)
 8002800:	10bfffc4 	addi	r2,r2,-1
 8002804:	e0bffb15 	stw	r2,-20(fp)
 8002808:	00002906 	br	80028b0 <checkMove+0x1ff0>
				}
				else if (CHECK_SQUARE_ENEMY(r ,c ,color)) {
 800280c:	d0e00017 	ldw	r3,-32768(gp)
 8002810:	e0bffb17 	ldw	r2,-20(fp)
 8002814:	100890fa 	slli	r4,r2,3
 8002818:	e0bffc17 	ldw	r2,-16(fp)
 800281c:	2085883a 	add	r2,r4,r2
 8002820:	1885883a 	add	r2,r3,r2
 8002824:	10800003 	ldbu	r2,0(r2)
 8002828:	10803fcc 	andi	r2,r2,255
 800282c:	108003cc 	andi	r2,r2,15
 8002830:	10800320 	cmpeqi	r2,r2,12
 8002834:	1000201e 	bne	r2,zero,80028b8 <checkMove+0x1ff8>
 8002838:	d0e00017 	ldw	r3,-32768(gp)
 800283c:	e0bffb17 	ldw	r2,-20(fp)
 8002840:	100890fa 	slli	r4,r2,3
 8002844:	e0bffc17 	ldw	r2,-16(fp)
 8002848:	2085883a 	add	r2,r4,r2
 800284c:	1885883a 	add	r2,r3,r2
 8002850:	10800003 	ldbu	r2,0(r2)
 8002854:	10803fcc 	andi	r2,r2,255
 8002858:	10c0004c 	andi	r3,r2,1
 800285c:	e0bffd83 	ldbu	r2,-10(fp)
 8002860:	18801526 	beq	r3,r2,80028b8 <checkMove+0x1ff8>
					HILITE(r,c);
 8002864:	d0e00017 	ldw	r3,-32768(gp)
 8002868:	e0bffb17 	ldw	r2,-20(fp)
 800286c:	100890fa 	slli	r4,r2,3
 8002870:	e0bffc17 	ldw	r2,-16(fp)
 8002874:	2085883a 	add	r2,r4,r2
 8002878:	d1600017 	ldw	r5,-32768(gp)
 800287c:	e13ffb17 	ldw	r4,-20(fp)
 8002880:	200c90fa 	slli	r6,r4,3
 8002884:	e13ffc17 	ldw	r4,-16(fp)
 8002888:	3109883a 	add	r4,r6,r4
 800288c:	2909883a 	add	r4,r5,r4
 8002890:	21000003 	ldbu	r4,0(r4)
 8002894:	21000414 	ori	r4,r4,16
 8002898:	1885883a 	add	r2,r3,r2
 800289c:	11000005 	stb	r4,0(r2)
 80028a0:	e0bffd03 	ldbu	r2,-12(fp)
 80028a4:	10800044 	addi	r2,r2,1
 80028a8:	e0bffd05 	stb	r2,-12(fp)
					break;
 80028ac:	00000206 	br	80028b8 <checkMove+0x1ff8>
				else break;
			}

			r = initRow - 1;
			c = initCol;
			while (r >= 0) {
 80028b0:	e0bffb17 	ldw	r2,-20(fp)
 80028b4:	103fb40e 	bge	r2,zero,8002788 <__alt_data_end+0xfc002788>
					break;
				}
				else break;
			}

			r = initRow + 1;
 80028b8:	e0bffe03 	ldbu	r2,-8(fp)
 80028bc:	10800044 	addi	r2,r2,1
 80028c0:	e0bffb15 	stw	r2,-20(fp)
			c = initCol;
 80028c4:	e0bfff03 	ldbu	r2,-4(fp)
 80028c8:	e0bffc15 	stw	r2,-16(fp)
			while (r < ROWS) {
 80028cc:	00004a06 	br	80029f8 <checkMove+0x2138>
				if (CHECK_SQUARE_EMPTY(r, c)) {
 80028d0:	d0e00017 	ldw	r3,-32768(gp)
 80028d4:	e0bffb17 	ldw	r2,-20(fp)
 80028d8:	100890fa 	slli	r4,r2,3
 80028dc:	e0bffc17 	ldw	r2,-16(fp)
 80028e0:	2085883a 	add	r2,r4,r2
 80028e4:	1885883a 	add	r2,r3,r2
 80028e8:	10800003 	ldbu	r2,0(r2)
 80028ec:	10803fcc 	andi	r2,r2,255
 80028f0:	108003cc 	andi	r2,r2,15
 80028f4:	10800318 	cmpnei	r2,r2,12
 80028f8:	1000161e 	bne	r2,zero,8002954 <checkMove+0x2094>
					HILITE(r,c);
 80028fc:	d0e00017 	ldw	r3,-32768(gp)
 8002900:	e0bffb17 	ldw	r2,-20(fp)
 8002904:	100890fa 	slli	r4,r2,3
 8002908:	e0bffc17 	ldw	r2,-16(fp)
 800290c:	2085883a 	add	r2,r4,r2
 8002910:	d1600017 	ldw	r5,-32768(gp)
 8002914:	e13ffb17 	ldw	r4,-20(fp)
 8002918:	200c90fa 	slli	r6,r4,3
 800291c:	e13ffc17 	ldw	r4,-16(fp)
 8002920:	3109883a 	add	r4,r6,r4
 8002924:	2909883a 	add	r4,r5,r4
 8002928:	21000003 	ldbu	r4,0(r4)
 800292c:	21000414 	ori	r4,r4,16
 8002930:	1885883a 	add	r2,r3,r2
 8002934:	11000005 	stb	r4,0(r2)
 8002938:	e0bffd03 	ldbu	r2,-12(fp)
 800293c:	10800044 	addi	r2,r2,1
 8002940:	e0bffd05 	stb	r2,-12(fp)
					r++;
 8002944:	e0bffb17 	ldw	r2,-20(fp)
 8002948:	10800044 	addi	r2,r2,1
 800294c:	e0bffb15 	stw	r2,-20(fp)
 8002950:	00002906 	br	80029f8 <checkMove+0x2138>
				}
				else if (CHECK_SQUARE_ENEMY(r ,c ,color)) {
 8002954:	d0e00017 	ldw	r3,-32768(gp)
 8002958:	e0bffb17 	ldw	r2,-20(fp)
 800295c:	100890fa 	slli	r4,r2,3
 8002960:	e0bffc17 	ldw	r2,-16(fp)
 8002964:	2085883a 	add	r2,r4,r2
 8002968:	1885883a 	add	r2,r3,r2
 800296c:	10800003 	ldbu	r2,0(r2)
 8002970:	10803fcc 	andi	r2,r2,255
 8002974:	108003cc 	andi	r2,r2,15
 8002978:	10800320 	cmpeqi	r2,r2,12
 800297c:	1000211e 	bne	r2,zero,8002a04 <checkMove+0x2144>
 8002980:	d0e00017 	ldw	r3,-32768(gp)
 8002984:	e0bffb17 	ldw	r2,-20(fp)
 8002988:	100890fa 	slli	r4,r2,3
 800298c:	e0bffc17 	ldw	r2,-16(fp)
 8002990:	2085883a 	add	r2,r4,r2
 8002994:	1885883a 	add	r2,r3,r2
 8002998:	10800003 	ldbu	r2,0(r2)
 800299c:	10803fcc 	andi	r2,r2,255
 80029a0:	10c0004c 	andi	r3,r2,1
 80029a4:	e0bffd83 	ldbu	r2,-10(fp)
 80029a8:	18801626 	beq	r3,r2,8002a04 <checkMove+0x2144>
					HILITE(r,c);
 80029ac:	d0e00017 	ldw	r3,-32768(gp)
 80029b0:	e0bffb17 	ldw	r2,-20(fp)
 80029b4:	100890fa 	slli	r4,r2,3
 80029b8:	e0bffc17 	ldw	r2,-16(fp)
 80029bc:	2085883a 	add	r2,r4,r2
 80029c0:	d1600017 	ldw	r5,-32768(gp)
 80029c4:	e13ffb17 	ldw	r4,-20(fp)
 80029c8:	200c90fa 	slli	r6,r4,3
 80029cc:	e13ffc17 	ldw	r4,-16(fp)
 80029d0:	3109883a 	add	r4,r6,r4
 80029d4:	2909883a 	add	r4,r5,r4
 80029d8:	21000003 	ldbu	r4,0(r4)
 80029dc:	21000414 	ori	r4,r4,16
 80029e0:	1885883a 	add	r2,r3,r2
 80029e4:	11000005 	stb	r4,0(r2)
 80029e8:	e0bffd03 	ldbu	r2,-12(fp)
 80029ec:	10800044 	addi	r2,r2,1
 80029f0:	e0bffd05 	stb	r2,-12(fp)
					break;
 80029f4:	00000306 	br	8002a04 <checkMove+0x2144>
				else break;
			}

			r = initRow + 1;
			c = initCol;
			while (r < ROWS) {
 80029f8:	e0bffb17 	ldw	r2,-20(fp)
 80029fc:	10800210 	cmplti	r2,r2,8
 8002a00:	103fb31e 	bne	r2,zero,80028d0 <__alt_data_end+0xfc0028d0>
					break;
				}
				else break;
			}

			r = initRow;
 8002a04:	e0bffe03 	ldbu	r2,-8(fp)
 8002a08:	e0bffb15 	stw	r2,-20(fp)
			c = initCol - 1;
 8002a0c:	e0bfff03 	ldbu	r2,-4(fp)
 8002a10:	10bfffc4 	addi	r2,r2,-1
 8002a14:	e0bffc15 	stw	r2,-16(fp)
			while (c >= 0) {
 8002a18:	00004a06 	br	8002b44 <checkMove+0x2284>
				if (CHECK_SQUARE_EMPTY(r, c)) {
 8002a1c:	d0e00017 	ldw	r3,-32768(gp)
 8002a20:	e0bffb17 	ldw	r2,-20(fp)
 8002a24:	100890fa 	slli	r4,r2,3
 8002a28:	e0bffc17 	ldw	r2,-16(fp)
 8002a2c:	2085883a 	add	r2,r4,r2
 8002a30:	1885883a 	add	r2,r3,r2
 8002a34:	10800003 	ldbu	r2,0(r2)
 8002a38:	10803fcc 	andi	r2,r2,255
 8002a3c:	108003cc 	andi	r2,r2,15
 8002a40:	10800318 	cmpnei	r2,r2,12
 8002a44:	1000161e 	bne	r2,zero,8002aa0 <checkMove+0x21e0>
					HILITE(r,c);
 8002a48:	d0e00017 	ldw	r3,-32768(gp)
 8002a4c:	e0bffb17 	ldw	r2,-20(fp)
 8002a50:	100890fa 	slli	r4,r2,3
 8002a54:	e0bffc17 	ldw	r2,-16(fp)
 8002a58:	2085883a 	add	r2,r4,r2
 8002a5c:	d1600017 	ldw	r5,-32768(gp)
 8002a60:	e13ffb17 	ldw	r4,-20(fp)
 8002a64:	200c90fa 	slli	r6,r4,3
 8002a68:	e13ffc17 	ldw	r4,-16(fp)
 8002a6c:	3109883a 	add	r4,r6,r4
 8002a70:	2909883a 	add	r4,r5,r4
 8002a74:	21000003 	ldbu	r4,0(r4)
 8002a78:	21000414 	ori	r4,r4,16
 8002a7c:	1885883a 	add	r2,r3,r2
 8002a80:	11000005 	stb	r4,0(r2)
 8002a84:	e0bffd03 	ldbu	r2,-12(fp)
 8002a88:	10800044 	addi	r2,r2,1
 8002a8c:	e0bffd05 	stb	r2,-12(fp)
					c--;
 8002a90:	e0bffc17 	ldw	r2,-16(fp)
 8002a94:	10bfffc4 	addi	r2,r2,-1
 8002a98:	e0bffc15 	stw	r2,-16(fp)
 8002a9c:	00002906 	br	8002b44 <checkMove+0x2284>
				}
				else if (CHECK_SQUARE_ENEMY(r ,c ,color)) {
 8002aa0:	d0e00017 	ldw	r3,-32768(gp)
 8002aa4:	e0bffb17 	ldw	r2,-20(fp)
 8002aa8:	100890fa 	slli	r4,r2,3
 8002aac:	e0bffc17 	ldw	r2,-16(fp)
 8002ab0:	2085883a 	add	r2,r4,r2
 8002ab4:	1885883a 	add	r2,r3,r2
 8002ab8:	10800003 	ldbu	r2,0(r2)
 8002abc:	10803fcc 	andi	r2,r2,255
 8002ac0:	108003cc 	andi	r2,r2,15
 8002ac4:	10800320 	cmpeqi	r2,r2,12
 8002ac8:	1000201e 	bne	r2,zero,8002b4c <checkMove+0x228c>
 8002acc:	d0e00017 	ldw	r3,-32768(gp)
 8002ad0:	e0bffb17 	ldw	r2,-20(fp)
 8002ad4:	100890fa 	slli	r4,r2,3
 8002ad8:	e0bffc17 	ldw	r2,-16(fp)
 8002adc:	2085883a 	add	r2,r4,r2
 8002ae0:	1885883a 	add	r2,r3,r2
 8002ae4:	10800003 	ldbu	r2,0(r2)
 8002ae8:	10803fcc 	andi	r2,r2,255
 8002aec:	10c0004c 	andi	r3,r2,1
 8002af0:	e0bffd83 	ldbu	r2,-10(fp)
 8002af4:	18801526 	beq	r3,r2,8002b4c <checkMove+0x228c>
					HILITE(r,c);
 8002af8:	d0e00017 	ldw	r3,-32768(gp)
 8002afc:	e0bffb17 	ldw	r2,-20(fp)
 8002b00:	100890fa 	slli	r4,r2,3
 8002b04:	e0bffc17 	ldw	r2,-16(fp)
 8002b08:	2085883a 	add	r2,r4,r2
 8002b0c:	d1600017 	ldw	r5,-32768(gp)
 8002b10:	e13ffb17 	ldw	r4,-20(fp)
 8002b14:	200c90fa 	slli	r6,r4,3
 8002b18:	e13ffc17 	ldw	r4,-16(fp)
 8002b1c:	3109883a 	add	r4,r6,r4
 8002b20:	2909883a 	add	r4,r5,r4
 8002b24:	21000003 	ldbu	r4,0(r4)
 8002b28:	21000414 	ori	r4,r4,16
 8002b2c:	1885883a 	add	r2,r3,r2
 8002b30:	11000005 	stb	r4,0(r2)
 8002b34:	e0bffd03 	ldbu	r2,-12(fp)
 8002b38:	10800044 	addi	r2,r2,1
 8002b3c:	e0bffd05 	stb	r2,-12(fp)
					break;
 8002b40:	00000206 	br	8002b4c <checkMove+0x228c>
				else break;
			}

			r = initRow;
			c = initCol - 1;
			while (c >= 0) {
 8002b44:	e0bffc17 	ldw	r2,-16(fp)
 8002b48:	103fb40e 	bge	r2,zero,8002a1c <__alt_data_end+0xfc002a1c>
					break;
				}
				else break;
			}

			r = initRow;
 8002b4c:	e0bffe03 	ldbu	r2,-8(fp)
 8002b50:	e0bffb15 	stw	r2,-20(fp)
			c = initCol + 1;
 8002b54:	e0bfff03 	ldbu	r2,-4(fp)
 8002b58:	10800044 	addi	r2,r2,1
 8002b5c:	e0bffc15 	stw	r2,-16(fp)
			while (c < COLUMNS) {
 8002b60:	00004b06 	br	8002c90 <checkMove+0x23d0>
				if (CHECK_SQUARE_EMPTY(r, c)) {
 8002b64:	d0e00017 	ldw	r3,-32768(gp)
 8002b68:	e0bffb17 	ldw	r2,-20(fp)
 8002b6c:	100890fa 	slli	r4,r2,3
 8002b70:	e0bffc17 	ldw	r2,-16(fp)
 8002b74:	2085883a 	add	r2,r4,r2
 8002b78:	1885883a 	add	r2,r3,r2
 8002b7c:	10800003 	ldbu	r2,0(r2)
 8002b80:	10803fcc 	andi	r2,r2,255
 8002b84:	108003cc 	andi	r2,r2,15
 8002b88:	10800318 	cmpnei	r2,r2,12
 8002b8c:	1000161e 	bne	r2,zero,8002be8 <checkMove+0x2328>
					HILITE(r,c);
 8002b90:	d0e00017 	ldw	r3,-32768(gp)
 8002b94:	e0bffb17 	ldw	r2,-20(fp)
 8002b98:	100890fa 	slli	r4,r2,3
 8002b9c:	e0bffc17 	ldw	r2,-16(fp)
 8002ba0:	2085883a 	add	r2,r4,r2
 8002ba4:	d1600017 	ldw	r5,-32768(gp)
 8002ba8:	e13ffb17 	ldw	r4,-20(fp)
 8002bac:	200c90fa 	slli	r6,r4,3
 8002bb0:	e13ffc17 	ldw	r4,-16(fp)
 8002bb4:	3109883a 	add	r4,r6,r4
 8002bb8:	2909883a 	add	r4,r5,r4
 8002bbc:	21000003 	ldbu	r4,0(r4)
 8002bc0:	21000414 	ori	r4,r4,16
 8002bc4:	1885883a 	add	r2,r3,r2
 8002bc8:	11000005 	stb	r4,0(r2)
 8002bcc:	e0bffd03 	ldbu	r2,-12(fp)
 8002bd0:	10800044 	addi	r2,r2,1
 8002bd4:	e0bffd05 	stb	r2,-12(fp)
					c++;
 8002bd8:	e0bffc17 	ldw	r2,-16(fp)
 8002bdc:	10800044 	addi	r2,r2,1
 8002be0:	e0bffc15 	stw	r2,-16(fp)
 8002be4:	00002a06 	br	8002c90 <checkMove+0x23d0>
				}
				else if (CHECK_SQUARE_ENEMY(r ,c ,color)) {
 8002be8:	d0e00017 	ldw	r3,-32768(gp)
 8002bec:	e0bffb17 	ldw	r2,-20(fp)
 8002bf0:	100890fa 	slli	r4,r2,3
 8002bf4:	e0bffc17 	ldw	r2,-16(fp)
 8002bf8:	2085883a 	add	r2,r4,r2
 8002bfc:	1885883a 	add	r2,r3,r2
 8002c00:	10800003 	ldbu	r2,0(r2)
 8002c04:	10803fcc 	andi	r2,r2,255
 8002c08:	108003cc 	andi	r2,r2,15
 8002c0c:	10800320 	cmpeqi	r2,r2,12
 8002c10:	1001501e 	bne	r2,zero,8003154 <checkMove+0x2894>
 8002c14:	d0e00017 	ldw	r3,-32768(gp)
 8002c18:	e0bffb17 	ldw	r2,-20(fp)
 8002c1c:	100890fa 	slli	r4,r2,3
 8002c20:	e0bffc17 	ldw	r2,-16(fp)
 8002c24:	2085883a 	add	r2,r4,r2
 8002c28:	1885883a 	add	r2,r3,r2
 8002c2c:	10800003 	ldbu	r2,0(r2)
 8002c30:	10803fcc 	andi	r2,r2,255
 8002c34:	10c0004c 	andi	r3,r2,1
 8002c38:	e0bffd83 	ldbu	r2,-10(fp)
 8002c3c:	18814526 	beq	r3,r2,8003154 <checkMove+0x2894>
					HILITE(r,c);
 8002c40:	d0e00017 	ldw	r3,-32768(gp)
 8002c44:	e0bffb17 	ldw	r2,-20(fp)
 8002c48:	100890fa 	slli	r4,r2,3
 8002c4c:	e0bffc17 	ldw	r2,-16(fp)
 8002c50:	2085883a 	add	r2,r4,r2
 8002c54:	d1600017 	ldw	r5,-32768(gp)
 8002c58:	e13ffb17 	ldw	r4,-20(fp)
 8002c5c:	200c90fa 	slli	r6,r4,3
 8002c60:	e13ffc17 	ldw	r4,-16(fp)
 8002c64:	3109883a 	add	r4,r6,r4
 8002c68:	2909883a 	add	r4,r5,r4
 8002c6c:	21000003 	ldbu	r4,0(r4)
 8002c70:	21000414 	ori	r4,r4,16
 8002c74:	1885883a 	add	r2,r3,r2
 8002c78:	11000005 	stb	r4,0(r2)
 8002c7c:	e0bffd03 	ldbu	r2,-12(fp)
 8002c80:	10800044 	addi	r2,r2,1
 8002c84:	e0bffd05 	stb	r2,-12(fp)
					break;
 8002c88:	0001883a 	nop
				}
				else break;
			}
			break;
 8002c8c:	00013106 	br	8003154 <checkMove+0x2894>
				else break;
			}

			r = initRow;
			c = initCol + 1;
			while (c < COLUMNS) {
 8002c90:	e0bffc17 	ldw	r2,-16(fp)
 8002c94:	10800210 	cmplti	r2,r2,8
 8002c98:	103fb21e 	bne	r2,zero,8002b64 <__alt_data_end+0xfc002b64>
					HILITE(r,c);
					break;
				}
				else break;
			}
			break;
 8002c9c:	00012d06 	br	8003154 <checkMove+0x2894>
		case KING:
			for (r = initRow - 1; r <= initRow + 1; r++) {
 8002ca0:	e0bffe03 	ldbu	r2,-8(fp)
 8002ca4:	10bfffc4 	addi	r2,r2,-1
 8002ca8:	e0bffb15 	stw	r2,-20(fp)
 8002cac:	00005a06 	br	8002e18 <checkMove+0x2558>
				for (c = initCol - 1; c <= initCol + 1; c++) {
 8002cb0:	e0bfff03 	ldbu	r2,-4(fp)
 8002cb4:	10bfffc4 	addi	r2,r2,-1
 8002cb8:	e0bffc15 	stw	r2,-16(fp)
 8002cbc:	00004f06 	br	8002dfc <checkMove+0x253c>
					if (r >= 0 && r < ROWS && c >= 0 && c < COLUMNS && 
 8002cc0:	e0bffb17 	ldw	r2,-20(fp)
 8002cc4:	10004a16 	blt	r2,zero,8002df0 <checkMove+0x2530>
 8002cc8:	e0bffb17 	ldw	r2,-20(fp)
 8002ccc:	10800208 	cmpgei	r2,r2,8
 8002cd0:	1000471e 	bne	r2,zero,8002df0 <checkMove+0x2530>
 8002cd4:	e0bffc17 	ldw	r2,-16(fp)
 8002cd8:	10004516 	blt	r2,zero,8002df0 <checkMove+0x2530>
 8002cdc:	e0bffc17 	ldw	r2,-16(fp)
 8002ce0:	10800208 	cmpgei	r2,r2,8
 8002ce4:	1000421e 	bne	r2,zero,8002df0 <checkMove+0x2530>
						(r != initRow || c != initCol) &&
 8002ce8:	e0fffe03 	ldbu	r3,-8(fp)
			}
			break;
		case KING:
			for (r = initRow - 1; r <= initRow + 1; r++) {
				for (c = initCol - 1; c <= initCol + 1; c++) {
					if (r >= 0 && r < ROWS && c >= 0 && c < COLUMNS && 
 8002cec:	e0bffb17 	ldw	r2,-20(fp)
 8002cf0:	1880031e 	bne	r3,r2,8002d00 <checkMove+0x2440>
						(r != initRow || c != initCol) &&
 8002cf4:	e0ffff03 	ldbu	r3,-4(fp)
 8002cf8:	e0bffc17 	ldw	r2,-16(fp)
 8002cfc:	18803c26 	beq	r3,r2,8002df0 <checkMove+0x2530>
						CHECK_SQUARE_EMPTY_OR_ENEMY(r, c, color) &&
 8002d00:	d0e00017 	ldw	r3,-32768(gp)
 8002d04:	e0bffb17 	ldw	r2,-20(fp)
 8002d08:	100890fa 	slli	r4,r2,3
 8002d0c:	e0bffc17 	ldw	r2,-16(fp)
 8002d10:	2085883a 	add	r2,r4,r2
 8002d14:	1885883a 	add	r2,r3,r2
 8002d18:	10800003 	ldbu	r2,0(r2)
 8002d1c:	10803fcc 	andi	r2,r2,255
 8002d20:	108003cc 	andi	r2,r2,15
			break;
		case KING:
			for (r = initRow - 1; r <= initRow + 1; r++) {
				for (c = initCol - 1; c <= initCol + 1; c++) {
					if (r >= 0 && r < ROWS && c >= 0 && c < COLUMNS && 
						(r != initRow || c != initCol) &&
 8002d24:	10800320 	cmpeqi	r2,r2,12
 8002d28:	1000161e 	bne	r2,zero,8002d84 <checkMove+0x24c4>
						CHECK_SQUARE_EMPTY_OR_ENEMY(r, c, color) &&
 8002d2c:	d0e00017 	ldw	r3,-32768(gp)
 8002d30:	e0bffb17 	ldw	r2,-20(fp)
 8002d34:	100890fa 	slli	r4,r2,3
 8002d38:	e0bffc17 	ldw	r2,-16(fp)
 8002d3c:	2085883a 	add	r2,r4,r2
 8002d40:	1885883a 	add	r2,r3,r2
 8002d44:	10800003 	ldbu	r2,0(r2)
 8002d48:	10803fcc 	andi	r2,r2,255
 8002d4c:	108003cc 	andi	r2,r2,15
 8002d50:	10800320 	cmpeqi	r2,r2,12
 8002d54:	1000261e 	bne	r2,zero,8002df0 <checkMove+0x2530>
 8002d58:	d0e00017 	ldw	r3,-32768(gp)
 8002d5c:	e0bffb17 	ldw	r2,-20(fp)
 8002d60:	100890fa 	slli	r4,r2,3
 8002d64:	e0bffc17 	ldw	r2,-16(fp)
 8002d68:	2085883a 	add	r2,r4,r2
 8002d6c:	1885883a 	add	r2,r3,r2
 8002d70:	10800003 	ldbu	r2,0(r2)
 8002d74:	10803fcc 	andi	r2,r2,255
 8002d78:	10c0004c 	andi	r3,r2,1
 8002d7c:	e0bffd83 	ldbu	r2,-10(fp)
 8002d80:	18801b26 	beq	r3,r2,8002df0 <checkMove+0x2530>
						(inCheck(r,c) == 0)) {
 8002d84:	e0bffb17 	ldw	r2,-20(fp)
 8002d88:	10c03fcc 	andi	r3,r2,255
 8002d8c:	e0bffc17 	ldw	r2,-16(fp)
 8002d90:	10803fcc 	andi	r2,r2,255
 8002d94:	100b883a 	mov	r5,r2
 8002d98:	1809883a 	mov	r4,r3
 8002d9c:	80035200 	call	8003520 <inCheck>
		case KING:
			for (r = initRow - 1; r <= initRow + 1; r++) {
				for (c = initCol - 1; c <= initCol + 1; c++) {
					if (r >= 0 && r < ROWS && c >= 0 && c < COLUMNS && 
						(r != initRow || c != initCol) &&
						CHECK_SQUARE_EMPTY_OR_ENEMY(r, c, color) &&
 8002da0:	10bfffcc 	andi	r2,r2,65535
 8002da4:	1000121e 	bne	r2,zero,8002df0 <checkMove+0x2530>
						(inCheck(r,c) == 0)) {
						
						HILITE(r,c);
 8002da8:	d0e00017 	ldw	r3,-32768(gp)
 8002dac:	e0bffb17 	ldw	r2,-20(fp)
 8002db0:	100890fa 	slli	r4,r2,3
 8002db4:	e0bffc17 	ldw	r2,-16(fp)
 8002db8:	2085883a 	add	r2,r4,r2
 8002dbc:	d1600017 	ldw	r5,-32768(gp)
 8002dc0:	e13ffb17 	ldw	r4,-20(fp)
 8002dc4:	200c90fa 	slli	r6,r4,3
 8002dc8:	e13ffc17 	ldw	r4,-16(fp)
 8002dcc:	3109883a 	add	r4,r6,r4
 8002dd0:	2909883a 	add	r4,r5,r4
 8002dd4:	21000003 	ldbu	r4,0(r4)
 8002dd8:	21000414 	ori	r4,r4,16
 8002ddc:	1885883a 	add	r2,r3,r2
 8002de0:	11000005 	stb	r4,0(r2)
 8002de4:	e0bffd03 	ldbu	r2,-12(fp)
 8002de8:	10800044 	addi	r2,r2,1
 8002dec:	e0bffd05 	stb	r2,-12(fp)
				else break;
			}
			break;
		case KING:
			for (r = initRow - 1; r <= initRow + 1; r++) {
				for (c = initCol - 1; c <= initCol + 1; c++) {
 8002df0:	e0bffc17 	ldw	r2,-16(fp)
 8002df4:	10800044 	addi	r2,r2,1
 8002df8:	e0bffc15 	stw	r2,-16(fp)
 8002dfc:	e0bfff03 	ldbu	r2,-4(fp)
 8002e00:	10c00044 	addi	r3,r2,1
 8002e04:	e0bffc17 	ldw	r2,-16(fp)
 8002e08:	18bfad0e 	bge	r3,r2,8002cc0 <__alt_data_end+0xfc002cc0>
				}
				else break;
			}
			break;
		case KING:
			for (r = initRow - 1; r <= initRow + 1; r++) {
 8002e0c:	e0bffb17 	ldw	r2,-20(fp)
 8002e10:	10800044 	addi	r2,r2,1
 8002e14:	e0bffb15 	stw	r2,-20(fp)
 8002e18:	e0bffe03 	ldbu	r2,-8(fp)
 8002e1c:	10c00044 	addi	r3,r2,1
 8002e20:	e0bffb17 	ldw	r2,-20(fp)
 8002e24:	18bfa20e 	bge	r3,r2,8002cb0 <__alt_data_end+0xfc002cb0>
					}
				}
			}

			/* SPECIAL CASE: CASTLING */
			if(color == WHITE && initRow == 7 && initCol == 4)
 8002e28:	e0bffd83 	ldbu	r2,-10(fp)
 8002e2c:	10800058 	cmpnei	r2,r2,1
 8002e30:	10005c1e 	bne	r2,zero,8002fa4 <checkMove+0x26e4>
 8002e34:	e0bffe03 	ldbu	r2,-8(fp)
 8002e38:	108001d8 	cmpnei	r2,r2,7
 8002e3c:	1000591e 	bne	r2,zero,8002fa4 <checkMove+0x26e4>
 8002e40:	e0bfff03 	ldbu	r2,-4(fp)
 8002e44:	10800118 	cmpnei	r2,r2,4
 8002e48:	1000561e 	bne	r2,zero,8002fa4 <checkMove+0x26e4>
			{
				if(vga_ctrl->SQUARES[56] == ((ROOK << 1) + WHITE) && CHECK_SQUARE_EMPTY(7, 1) && CHECK_SQUARE_EMPTY(7, 2) && CHECK_SQUARE_EMPTY(7, 3))
 8002e4c:	d0a00017 	ldw	r2,-32768(gp)
 8002e50:	10800e03 	ldbu	r2,56(r2)
 8002e54:	10803fcc 	andi	r2,r2,255
 8002e58:	108001d8 	cmpnei	r2,r2,7
 8002e5c:	1000291e 	bne	r2,zero,8002f04 <checkMove+0x2644>
 8002e60:	d0a00017 	ldw	r2,-32768(gp)
 8002e64:	10800e43 	ldbu	r2,57(r2)
 8002e68:	10803fcc 	andi	r2,r2,255
 8002e6c:	108003cc 	andi	r2,r2,15
 8002e70:	10800318 	cmpnei	r2,r2,12
 8002e74:	1000231e 	bne	r2,zero,8002f04 <checkMove+0x2644>
 8002e78:	d0a00017 	ldw	r2,-32768(gp)
 8002e7c:	10800e83 	ldbu	r2,58(r2)
 8002e80:	10803fcc 	andi	r2,r2,255
 8002e84:	108003cc 	andi	r2,r2,15
 8002e88:	10800318 	cmpnei	r2,r2,12
 8002e8c:	10001d1e 	bne	r2,zero,8002f04 <checkMove+0x2644>
 8002e90:	d0a00017 	ldw	r2,-32768(gp)
 8002e94:	10800ec3 	ldbu	r2,59(r2)
 8002e98:	10803fcc 	andi	r2,r2,255
 8002e9c:	108003cc 	andi	r2,r2,15
 8002ea0:	10800318 	cmpnei	r2,r2,12
 8002ea4:	1000171e 	bne	r2,zero,8002f04 <checkMove+0x2644>
				{
					HILITE(initRow, initCol - 2);
 8002ea8:	d0e00017 	ldw	r3,-32768(gp)
 8002eac:	e0bffe03 	ldbu	r2,-8(fp)
 8002eb0:	100890fa 	slli	r4,r2,3
 8002eb4:	e0bfff03 	ldbu	r2,-4(fp)
 8002eb8:	10bfff84 	addi	r2,r2,-2
 8002ebc:	2085883a 	add	r2,r4,r2
 8002ec0:	d1600017 	ldw	r5,-32768(gp)
 8002ec4:	e13ffe03 	ldbu	r4,-8(fp)
 8002ec8:	200c90fa 	slli	r6,r4,3
 8002ecc:	e13fff03 	ldbu	r4,-4(fp)
 8002ed0:	213fff84 	addi	r4,r4,-2
 8002ed4:	3109883a 	add	r4,r6,r4
 8002ed8:	2909883a 	add	r4,r5,r4
 8002edc:	21000003 	ldbu	r4,0(r4)
 8002ee0:	21000414 	ori	r4,r4,16
 8002ee4:	1885883a 	add	r2,r3,r2
 8002ee8:	11000005 	stb	r4,0(r2)
 8002eec:	e0bffd03 	ldbu	r2,-12(fp)
 8002ef0:	10800044 	addi	r2,r2,1
 8002ef4:	e0bffd05 	stb	r2,-12(fp)
					castling_status = WHITE_CASTLE_LEFT;
 8002ef8:	00800044 	movi	r2,1
 8002efc:	d0a6e6c5 	stb	r2,-25701(gp)
			}

			/* SPECIAL CASE: CASTLING */
			if(color == WHITE && initRow == 7 && initCol == 4)
			{
				if(vga_ctrl->SQUARES[56] == ((ROOK << 1) + WHITE) && CHECK_SQUARE_EMPTY(7, 1) && CHECK_SQUARE_EMPTY(7, 2) && CHECK_SQUARE_EMPTY(7, 3))
 8002f00:	00008506 	br	8003118 <checkMove+0x2858>
				{
					HILITE(initRow, initCol - 2);
					castling_status = WHITE_CASTLE_LEFT;
				}
				else if(vga_ctrl->SQUARES[63] == ((ROOK << 1) + WHITE) && CHECK_SQUARE_EMPTY(7, 5) && CHECK_SQUARE_EMPTY(7, 6))
 8002f04:	d0a00017 	ldw	r2,-32768(gp)
 8002f08:	10800fc3 	ldbu	r2,63(r2)
 8002f0c:	10803fcc 	andi	r2,r2,255
 8002f10:	108001d8 	cmpnei	r2,r2,7
 8002f14:	1000801e 	bne	r2,zero,8003118 <checkMove+0x2858>
 8002f18:	d0a00017 	ldw	r2,-32768(gp)
 8002f1c:	10800f43 	ldbu	r2,61(r2)
 8002f20:	10803fcc 	andi	r2,r2,255
 8002f24:	108003cc 	andi	r2,r2,15
 8002f28:	10800318 	cmpnei	r2,r2,12
 8002f2c:	10007a1e 	bne	r2,zero,8003118 <checkMove+0x2858>
 8002f30:	d0a00017 	ldw	r2,-32768(gp)
 8002f34:	10800f83 	ldbu	r2,62(r2)
 8002f38:	10803fcc 	andi	r2,r2,255
 8002f3c:	108003cc 	andi	r2,r2,15
 8002f40:	10800318 	cmpnei	r2,r2,12
 8002f44:	1000741e 	bne	r2,zero,8003118 <checkMove+0x2858>
				{
					HILITE(initRow, initCol + 2);
 8002f48:	d0e00017 	ldw	r3,-32768(gp)
 8002f4c:	e0bffe03 	ldbu	r2,-8(fp)
 8002f50:	100890fa 	slli	r4,r2,3
 8002f54:	e0bfff03 	ldbu	r2,-4(fp)
 8002f58:	10800084 	addi	r2,r2,2
 8002f5c:	2085883a 	add	r2,r4,r2
 8002f60:	d1600017 	ldw	r5,-32768(gp)
 8002f64:	e13ffe03 	ldbu	r4,-8(fp)
 8002f68:	200c90fa 	slli	r6,r4,3
 8002f6c:	e13fff03 	ldbu	r4,-4(fp)
 8002f70:	21000084 	addi	r4,r4,2
 8002f74:	3109883a 	add	r4,r6,r4
 8002f78:	2909883a 	add	r4,r5,r4
 8002f7c:	21000003 	ldbu	r4,0(r4)
 8002f80:	21000414 	ori	r4,r4,16
 8002f84:	1885883a 	add	r2,r3,r2
 8002f88:	11000005 	stb	r4,0(r2)
 8002f8c:	e0bffd03 	ldbu	r2,-12(fp)
 8002f90:	10800044 	addi	r2,r2,1
 8002f94:	e0bffd05 	stb	r2,-12(fp)
					castling_status = WHITE_CASTLE_RIGHT;
 8002f98:	00800084 	movi	r2,2
 8002f9c:	d0a6e6c5 	stb	r2,-25701(gp)
			}

			/* SPECIAL CASE: CASTLING */
			if(color == WHITE && initRow == 7 && initCol == 4)
			{
				if(vga_ctrl->SQUARES[56] == ((ROOK << 1) + WHITE) && CHECK_SQUARE_EMPTY(7, 1) && CHECK_SQUARE_EMPTY(7, 2) && CHECK_SQUARE_EMPTY(7, 3))
 8002fa0:	00005d06 	br	8003118 <checkMove+0x2858>
				{
					HILITE(initRow, initCol + 2);
					castling_status = WHITE_CASTLE_RIGHT;
				}
			}
			else if(color == BLACK && initRow == 0 && initCol == 4)
 8002fa4:	e0bffd83 	ldbu	r2,-10(fp)
 8002fa8:	10006c1e 	bne	r2,zero,800315c <checkMove+0x289c>
 8002fac:	e0bffe03 	ldbu	r2,-8(fp)
 8002fb0:	10006a1e 	bne	r2,zero,800315c <checkMove+0x289c>
 8002fb4:	e0bfff03 	ldbu	r2,-4(fp)
 8002fb8:	10800118 	cmpnei	r2,r2,4
 8002fbc:	1000671e 	bne	r2,zero,800315c <checkMove+0x289c>
			{
				if(vga_ctrl->SQUARES[0] == ((ROOK << 1) + BLACK) && CHECK_SQUARE_EMPTY(0, 1) && CHECK_SQUARE_EMPTY(0, 2) && CHECK_SQUARE_EMPTY(0, 3))
 8002fc0:	d0a00017 	ldw	r2,-32768(gp)
 8002fc4:	10800003 	ldbu	r2,0(r2)
 8002fc8:	10803fcc 	andi	r2,r2,255
 8002fcc:	10800198 	cmpnei	r2,r2,6
 8002fd0:	1000291e 	bne	r2,zero,8003078 <checkMove+0x27b8>
 8002fd4:	d0a00017 	ldw	r2,-32768(gp)
 8002fd8:	10800043 	ldbu	r2,1(r2)
 8002fdc:	10803fcc 	andi	r2,r2,255
 8002fe0:	108003cc 	andi	r2,r2,15
 8002fe4:	10800318 	cmpnei	r2,r2,12
 8002fe8:	1000231e 	bne	r2,zero,8003078 <checkMove+0x27b8>
 8002fec:	d0a00017 	ldw	r2,-32768(gp)
 8002ff0:	10800083 	ldbu	r2,2(r2)
 8002ff4:	10803fcc 	andi	r2,r2,255
 8002ff8:	108003cc 	andi	r2,r2,15
 8002ffc:	10800318 	cmpnei	r2,r2,12
 8003000:	10001d1e 	bne	r2,zero,8003078 <checkMove+0x27b8>
 8003004:	d0a00017 	ldw	r2,-32768(gp)
 8003008:	108000c3 	ldbu	r2,3(r2)
 800300c:	10803fcc 	andi	r2,r2,255
 8003010:	108003cc 	andi	r2,r2,15
 8003014:	10800318 	cmpnei	r2,r2,12
 8003018:	1000171e 	bne	r2,zero,8003078 <checkMove+0x27b8>
				{
					HILITE(initRow, initCol - 2);
 800301c:	d0e00017 	ldw	r3,-32768(gp)
 8003020:	e0bffe03 	ldbu	r2,-8(fp)
 8003024:	100890fa 	slli	r4,r2,3
 8003028:	e0bfff03 	ldbu	r2,-4(fp)
 800302c:	10bfff84 	addi	r2,r2,-2
 8003030:	2085883a 	add	r2,r4,r2
 8003034:	d1600017 	ldw	r5,-32768(gp)
 8003038:	e13ffe03 	ldbu	r4,-8(fp)
 800303c:	200c90fa 	slli	r6,r4,3
 8003040:	e13fff03 	ldbu	r4,-4(fp)
 8003044:	213fff84 	addi	r4,r4,-2
 8003048:	3109883a 	add	r4,r6,r4
 800304c:	2909883a 	add	r4,r5,r4
 8003050:	21000003 	ldbu	r4,0(r4)
 8003054:	21000414 	ori	r4,r4,16
 8003058:	1885883a 	add	r2,r3,r2
 800305c:	11000005 	stb	r4,0(r2)
 8003060:	e0bffd03 	ldbu	r2,-12(fp)
 8003064:	10800044 	addi	r2,r2,1
 8003068:	e0bffd05 	stb	r2,-12(fp)
					castling_status = BLACK_CASTLE_LEFT;
 800306c:	008000c4 	movi	r2,3
 8003070:	d0a6e6c5 	stb	r2,-25701(gp)
 8003074:	00002906 	br	800311c <checkMove+0x285c>
				}
				else if(vga_ctrl->SQUARES[7] == ((ROOK << 1) + BLACK) && CHECK_SQUARE_EMPTY(0, 5) && CHECK_SQUARE_EMPTY(0, 6))
 8003078:	d0a00017 	ldw	r2,-32768(gp)
 800307c:	108001c3 	ldbu	r2,7(r2)
 8003080:	10803fcc 	andi	r2,r2,255
 8003084:	10800198 	cmpnei	r2,r2,6
 8003088:	1000341e 	bne	r2,zero,800315c <checkMove+0x289c>
 800308c:	d0a00017 	ldw	r2,-32768(gp)
 8003090:	10800143 	ldbu	r2,5(r2)
 8003094:	10803fcc 	andi	r2,r2,255
 8003098:	108003cc 	andi	r2,r2,15
 800309c:	10800318 	cmpnei	r2,r2,12
 80030a0:	10002e1e 	bne	r2,zero,800315c <checkMove+0x289c>
 80030a4:	d0a00017 	ldw	r2,-32768(gp)
 80030a8:	10800183 	ldbu	r2,6(r2)
 80030ac:	10803fcc 	andi	r2,r2,255
 80030b0:	108003cc 	andi	r2,r2,15
 80030b4:	10800318 	cmpnei	r2,r2,12
 80030b8:	1000281e 	bne	r2,zero,800315c <checkMove+0x289c>
				{
					HILITE(initRow, initCol + 2);
 80030bc:	d0e00017 	ldw	r3,-32768(gp)
 80030c0:	e0bffe03 	ldbu	r2,-8(fp)
 80030c4:	100890fa 	slli	r4,r2,3
 80030c8:	e0bfff03 	ldbu	r2,-4(fp)
 80030cc:	10800084 	addi	r2,r2,2
 80030d0:	2085883a 	add	r2,r4,r2
 80030d4:	d1600017 	ldw	r5,-32768(gp)
 80030d8:	e13ffe03 	ldbu	r4,-8(fp)
 80030dc:	200c90fa 	slli	r6,r4,3
 80030e0:	e13fff03 	ldbu	r4,-4(fp)
 80030e4:	21000084 	addi	r4,r4,2
 80030e8:	3109883a 	add	r4,r6,r4
 80030ec:	2909883a 	add	r4,r5,r4
 80030f0:	21000003 	ldbu	r4,0(r4)
 80030f4:	21000414 	ori	r4,r4,16
 80030f8:	1885883a 	add	r2,r3,r2
 80030fc:	11000005 	stb	r4,0(r2)
 8003100:	e0bffd03 	ldbu	r2,-12(fp)
 8003104:	10800044 	addi	r2,r2,1
 8003108:	e0bffd05 	stb	r2,-12(fp)
					castling_status = BLACK_CASTLE_RIGHT;
 800310c:	00800104 	movi	r2,4
 8003110:	d0a6e6c5 	stb	r2,-25701(gp)
				}
			}
				
			break;
 8003114:	00001106 	br	800315c <checkMove+0x289c>
			}

			/* SPECIAL CASE: CASTLING */
			if(color == WHITE && initRow == 7 && initCol == 4)
			{
				if(vga_ctrl->SQUARES[56] == ((ROOK << 1) + WHITE) && CHECK_SQUARE_EMPTY(7, 1) && CHECK_SQUARE_EMPTY(7, 2) && CHECK_SQUARE_EMPTY(7, 3))
 8003118:	0001883a 	nop
					HILITE(initRow, initCol + 2);
					castling_status = BLACK_CASTLE_RIGHT;
				}
			}
				
			break;
 800311c:	00000f06 	br	800315c <checkMove+0x289c>
		default:
			printf("Panic!\n");
 8003120:	010200b4 	movhi	r4,2050
 8003124:	21226c04 	addi	r4,r4,-30288
 8003128:	80090d80 	call	80090d8 <puts>
			return 0;
 800312c:	0005883a 	mov	r2,zero
 8003130:	00001006 	br	8003174 <checkMove+0x28b4>
					if (initCol != 7 && CHECK_SQUARE_ENEMY(initRow + 1, initCol + 1, color)) {
						HILITE(initRow + 1, initCol + 1);
					}
				}
			}
			break;
 8003134:	0001883a 	nop
 8003138:	00000906 	br	8003160 <checkMove+0x28a0>
				}
				if (initCol <= 5 && CHECK_SQUARE_EMPTY_OR_ENEMY(initRow + 1, initCol + 2, color)) {
					HILITE(initRow + 1, initCol + 2);
				}
			}
			break;
 800313c:	0001883a 	nop
 8003140:	00000706 	br	8003160 <checkMove+0x28a0>
					HILITE(r, c);
					break;
				}
				else break;
			}
			break;
 8003144:	0001883a 	nop
 8003148:	00000506 	br	8003160 <checkMove+0x28a0>
					HILITE(r,c);
					break;
				}
				else break;
			}
			break;
 800314c:	0001883a 	nop
 8003150:	00000306 	br	8003160 <checkMove+0x28a0>
					HILITE(r,c);
					break;
				}
				else break;
			}
			break;
 8003154:	0001883a 	nop
 8003158:	00000106 	br	8003160 <checkMove+0x28a0>
					HILITE(initRow, initCol + 2);
					castling_status = BLACK_CASTLE_RIGHT;
				}
			}
				
			break;
 800315c:	0001883a 	nop
		default:
			printf("Panic!\n");
			return 0;
	}

	if (nPlaces == 0)
 8003160:	e0bffd03 	ldbu	r2,-12(fp)
 8003164:	1000021e 	bne	r2,zero,8003170 <checkMove+0x28b0>
		return 0;
 8003168:	0005883a 	mov	r2,zero
 800316c:	00000106 	br	8003174 <checkMove+0x28b4>

	return 1;
 8003170:	00800044 	movi	r2,1
}
 8003174:	e037883a 	mov	sp,fp
 8003178:	dfc00117 	ldw	ra,4(sp)
 800317c:	df000017 	ldw	fp,0(sp)
 8003180:	dec00204 	addi	sp,sp,8
 8003184:	f800283a 	ret

08003188 <makeMove>:

alt_u8 makeMove(alt_u8 initRow, alt_u8 initCol, alt_u8 finalRow, alt_u8 finalCol)
{
 8003188:	defff904 	addi	sp,sp,-28
 800318c:	dfc00615 	stw	ra,24(sp)
 8003190:	df000515 	stw	fp,20(sp)
 8003194:	df000504 	addi	fp,sp,20
 8003198:	2011883a 	mov	r8,r4
 800319c:	2809883a 	mov	r4,r5
 80031a0:	3007883a 	mov	r3,r6
 80031a4:	3805883a 	mov	r2,r7
 80031a8:	e23ffc05 	stb	r8,-16(fp)
 80031ac:	e13ffd05 	stb	r4,-12(fp)
 80031b0:	e0fffe05 	stb	r3,-8(fp)
 80031b4:	e0bfff05 	stb	r2,-4(fp)
	// printf("makeMove called with parameters: (%d, %d) -> (%d, %d)\n", initRow, initCol, finalRow, finalCol);
	
	alt_u8 piece = vga_ctrl->SQUARES[initRow * 8 + initCol];
 80031b8:	d0e00017 	ldw	r3,-32768(gp)
 80031bc:	e0bffc03 	ldbu	r2,-16(fp)
 80031c0:	100890fa 	slli	r4,r2,3
 80031c4:	e0bffd03 	ldbu	r2,-12(fp)
 80031c8:	2085883a 	add	r2,r4,r2
 80031cc:	1885883a 	add	r2,r3,r2
 80031d0:	10800003 	ldbu	r2,0(r2)
 80031d4:	e0bffb05 	stb	r2,-20(fp)
	alt_u8 color = piece & 1;
 80031d8:	e0bffb03 	ldbu	r2,-20(fp)
 80031dc:	1080004c 	andi	r2,r2,1
 80031e0:	e0bffb45 	stb	r2,-19(fp)
	alt_u8 pieceType = (piece >> 1) & 7;	
 80031e4:	e0bffb03 	ldbu	r2,-20(fp)
 80031e8:	1004d07a 	srli	r2,r2,1
 80031ec:	108001cc 	andi	r2,r2,7
 80031f0:	e0bffb85 	stb	r2,-18(fp)
	
	// printf("color: %d, pieceType: %d \n", color, pieceType);
	// printf("Castling Status: %d: \n", castling_status);
	
	/* Illegal Move */
	if((vga_ctrl->SQUARES[finalRow * 8 + finalCol] & 0x10) == 0)
 80031f4:	d0e00017 	ldw	r3,-32768(gp)
 80031f8:	e0bffe03 	ldbu	r2,-8(fp)
 80031fc:	100890fa 	slli	r4,r2,3
 8003200:	e0bfff03 	ldbu	r2,-4(fp)
 8003204:	2085883a 	add	r2,r4,r2
 8003208:	1885883a 	add	r2,r3,r2
 800320c:	10800003 	ldbu	r2,0(r2)
 8003210:	10803fcc 	andi	r2,r2,255
 8003214:	1080040c 	andi	r2,r2,16
 8003218:	1000021e 	bne	r2,zero,8003224 <makeMove+0x9c>
	{
		return 0;
 800321c:	0005883a 	mov	r2,zero
 8003220:	0000ba06 	br	800350c <makeMove+0x384>
	}

	/* SPECIAL CASE: PAWN PROMOTION */
	if(color == WHITE && pieceType == PAWN && finalRow == 0)
 8003224:	e0bffb43 	ldbu	r2,-19(fp)
 8003228:	10800058 	cmpnei	r2,r2,1
 800322c:	1000161e 	bne	r2,zero,8003288 <makeMove+0x100>
 8003230:	e0bffb83 	ldbu	r2,-18(fp)
 8003234:	1000141e 	bne	r2,zero,8003288 <makeMove+0x100>
 8003238:	e0bffe03 	ldbu	r2,-8(fp)
 800323c:	1000121e 	bne	r2,zero,8003288 <makeMove+0x100>
	{
		vga_ctrl->SQUARES[initRow * 8 + initCol] = EMPTY_SQUARE;
 8003240:	d0e00017 	ldw	r3,-32768(gp)
 8003244:	e0bffc03 	ldbu	r2,-16(fp)
 8003248:	100890fa 	slli	r4,r2,3
 800324c:	e0bffd03 	ldbu	r2,-12(fp)
 8003250:	2085883a 	add	r2,r4,r2
 8003254:	1885883a 	add	r2,r3,r2
 8003258:	00c00304 	movi	r3,12
 800325c:	10c00005 	stb	r3,0(r2)
		vga_ctrl->SQUARES[finalRow * 8 + finalCol] = (QUEEN << 1) + color;
 8003260:	d0e00017 	ldw	r3,-32768(gp)
 8003264:	e0bffe03 	ldbu	r2,-8(fp)
 8003268:	100890fa 	slli	r4,r2,3
 800326c:	e0bfff03 	ldbu	r2,-4(fp)
 8003270:	2085883a 	add	r2,r4,r2
 8003274:	e13ffb43 	ldbu	r4,-19(fp)
 8003278:	21000204 	addi	r4,r4,8
 800327c:	1885883a 	add	r2,r3,r2
 8003280:	11000005 	stb	r4,0(r2)
 8003284:	00009e06 	br	8003500 <makeMove+0x378>
	}
	else if(color == BLACK && pieceType == PAWN && finalRow == 7)
 8003288:	e0bffb43 	ldbu	r2,-19(fp)
 800328c:	1000171e 	bne	r2,zero,80032ec <makeMove+0x164>
 8003290:	e0bffb83 	ldbu	r2,-18(fp)
 8003294:	1000151e 	bne	r2,zero,80032ec <makeMove+0x164>
 8003298:	e0bffe03 	ldbu	r2,-8(fp)
 800329c:	108001d8 	cmpnei	r2,r2,7
 80032a0:	1000121e 	bne	r2,zero,80032ec <makeMove+0x164>
	{
		vga_ctrl->SQUARES[initRow * 8 + initCol] = EMPTY_SQUARE;
 80032a4:	d0e00017 	ldw	r3,-32768(gp)
 80032a8:	e0bffc03 	ldbu	r2,-16(fp)
 80032ac:	100890fa 	slli	r4,r2,3
 80032b0:	e0bffd03 	ldbu	r2,-12(fp)
 80032b4:	2085883a 	add	r2,r4,r2
 80032b8:	1885883a 	add	r2,r3,r2
 80032bc:	00c00304 	movi	r3,12
 80032c0:	10c00005 	stb	r3,0(r2)
		vga_ctrl->SQUARES[finalRow * 8 + finalCol] = (QUEEN << 1) + color;
 80032c4:	d0e00017 	ldw	r3,-32768(gp)
 80032c8:	e0bffe03 	ldbu	r2,-8(fp)
 80032cc:	100890fa 	slli	r4,r2,3
 80032d0:	e0bfff03 	ldbu	r2,-4(fp)
 80032d4:	2085883a 	add	r2,r4,r2
 80032d8:	e13ffb43 	ldbu	r4,-19(fp)
 80032dc:	21000204 	addi	r4,r4,8
 80032e0:	1885883a 	add	r2,r3,r2
 80032e4:	11000005 	stb	r4,0(r2)
 80032e8:	00008506 	br	8003500 <makeMove+0x378>
	}
	/* SPECIAL CASE: CASTLING */
	else if(castling_status != NO_CASTLE && abs(initCol - finalCol) == 2)
 80032ec:	d0a6e6c3 	ldbu	r2,-25701(gp)
 80032f0:	10803fcc 	andi	r2,r2,255
 80032f4:	10005a26 	beq	r2,zero,8003460 <makeMove+0x2d8>
 80032f8:	e0fffd03 	ldbu	r3,-12(fp)
 80032fc:	e0bfff03 	ldbu	r2,-4(fp)
 8003300:	1885c83a 	sub	r2,r3,r2
 8003304:	1000010e 	bge	r2,zero,800330c <makeMove+0x184>
 8003308:	0085c83a 	sub	r2,zero,r2
 800330c:	10800098 	cmpnei	r2,r2,2
 8003310:	1000531e 	bne	r2,zero,8003460 <makeMove+0x2d8>
	{
		if(castling_status == WHITE_CASTLE_LEFT)
 8003314:	d0a6e6c3 	ldbu	r2,-25701(gp)
 8003318:	10803fcc 	andi	r2,r2,255
 800331c:	10800058 	cmpnei	r2,r2,1
 8003320:	1000071e 	bne	r2,zero,8003340 <makeMove+0x1b8>
		{
			vga_ctrl->SQUARES[7 * 8 + 3] = (ROOK << 1) + WHITE;
 8003324:	d0a00017 	ldw	r2,-32768(gp)
 8003328:	00c001c4 	movi	r3,7
 800332c:	10c00ec5 	stb	r3,59(r2)
			vga_ctrl->SQUARES[7 * 8 + 0] = EMPTY_SQUARE;
 8003330:	d0a00017 	ldw	r2,-32768(gp)
 8003334:	00c00304 	movi	r3,12
 8003338:	10c00e05 	stb	r3,56(r2)
 800333c:	00002006 	br	80033c0 <makeMove+0x238>
		}
		else if(castling_status == WHITE_CASTLE_RIGHT)
 8003340:	d0a6e6c3 	ldbu	r2,-25701(gp)
 8003344:	10803fcc 	andi	r2,r2,255
 8003348:	10800098 	cmpnei	r2,r2,2
 800334c:	1000071e 	bne	r2,zero,800336c <makeMove+0x1e4>
		{
			vga_ctrl->SQUARES[7 * 8 + 5] = (ROOK << 1) + WHITE;
 8003350:	d0a00017 	ldw	r2,-32768(gp)
 8003354:	00c001c4 	movi	r3,7
 8003358:	10c00f45 	stb	r3,61(r2)
			vga_ctrl->SQUARES[7 * 8 + 7] = EMPTY_SQUARE;
 800335c:	d0a00017 	ldw	r2,-32768(gp)
 8003360:	00c00304 	movi	r3,12
 8003364:	10c00fc5 	stb	r3,63(r2)
 8003368:	00001506 	br	80033c0 <makeMove+0x238>
		}
		else if(castling_status == BLACK_CASTLE_LEFT)
 800336c:	d0a6e6c3 	ldbu	r2,-25701(gp)
 8003370:	10803fcc 	andi	r2,r2,255
 8003374:	108000d8 	cmpnei	r2,r2,3
 8003378:	1000071e 	bne	r2,zero,8003398 <makeMove+0x210>
		{
			vga_ctrl->SQUARES[0 * 8 + 3] = (ROOK << 1) + BLACK;
 800337c:	d0a00017 	ldw	r2,-32768(gp)
 8003380:	00c00184 	movi	r3,6
 8003384:	10c000c5 	stb	r3,3(r2)
			vga_ctrl->SQUARES[0 * 8 + 0] = EMPTY_SQUARE;
 8003388:	d0a00017 	ldw	r2,-32768(gp)
 800338c:	00c00304 	movi	r3,12
 8003390:	10c00005 	stb	r3,0(r2)
 8003394:	00000a06 	br	80033c0 <makeMove+0x238>
		}
		else if(castling_status == BLACK_CASTLE_RIGHT)
 8003398:	d0a6e6c3 	ldbu	r2,-25701(gp)
 800339c:	10803fcc 	andi	r2,r2,255
 80033a0:	10800118 	cmpnei	r2,r2,4
 80033a4:	1000061e 	bne	r2,zero,80033c0 <makeMove+0x238>
		{
			vga_ctrl->SQUARES[0 * 8 + 5] = (ROOK << 1) + BLACK;
 80033a8:	d0a00017 	ldw	r2,-32768(gp)
 80033ac:	00c00184 	movi	r3,6
 80033b0:	10c00145 	stb	r3,5(r2)
			vga_ctrl->SQUARES[0 * 8 + 7] = EMPTY_SQUARE;
 80033b4:	d0a00017 	ldw	r2,-32768(gp)
 80033b8:	00c00304 	movi	r3,12
 80033bc:	10c001c5 	stb	r3,7(r2)
		}
		castling_status = NO_CASTLE;
 80033c0:	d026e6c5 	stb	zero,-25701(gp)
		vga_ctrl->SQUARES[initRow * 8 + initCol] = EMPTY_SQUARE;
 80033c4:	d0e00017 	ldw	r3,-32768(gp)
 80033c8:	e0bffc03 	ldbu	r2,-16(fp)
 80033cc:	100890fa 	slli	r4,r2,3
 80033d0:	e0bffd03 	ldbu	r2,-12(fp)
 80033d4:	2085883a 	add	r2,r4,r2
 80033d8:	1885883a 	add	r2,r3,r2
 80033dc:	00c00304 	movi	r3,12
 80033e0:	10c00005 	stb	r3,0(r2)
		vga_ctrl->SQUARES[finalRow * 8 + finalCol] = piece;
 80033e4:	d0e00017 	ldw	r3,-32768(gp)
 80033e8:	e0bffe03 	ldbu	r2,-8(fp)
 80033ec:	100890fa 	slli	r4,r2,3
 80033f0:	e0bfff03 	ldbu	r2,-4(fp)
 80033f4:	2085883a 	add	r2,r4,r2
 80033f8:	1885883a 	add	r2,r3,r2
 80033fc:	e0fffb03 	ldbu	r3,-20(fp)
 8003400:	10c00005 	stb	r3,0(r2)
		if(player_turn == BLACK && pieceType == KING)
 8003404:	d0a6e683 	ldbu	r2,-25702(gp)
 8003408:	10803fcc 	andi	r2,r2,255
 800340c:	1000081e 	bne	r2,zero,8003430 <makeMove+0x2a8>
 8003410:	e0bffb83 	ldbu	r2,-18(fp)
 8003414:	10800158 	cmpnei	r2,r2,5
 8003418:	1000051e 	bne	r2,zero,8003430 <makeMove+0x2a8>
		{
			B_kingX = finalCol;
 800341c:	e0bfff03 	ldbu	r2,-4(fp)
 8003420:	d0a6e605 	stb	r2,-25704(gp)
			B_kingY = finalRow;
 8003424:	e0bffe03 	ldbu	r2,-8(fp)
 8003428:	d0a6e645 	stb	r2,-25703(gp)
			vga_ctrl->SQUARES[0 * 8 + 7] = EMPTY_SQUARE;
		}
		castling_status = NO_CASTLE;
		vga_ctrl->SQUARES[initRow * 8 + initCol] = EMPTY_SQUARE;
		vga_ctrl->SQUARES[finalRow * 8 + finalCol] = piece;
		if(player_turn == BLACK && pieceType == KING)
 800342c:	00003306 	br	80034fc <makeMove+0x374>
		{
			B_kingX = finalCol;
			B_kingY = finalRow;
		}
		else if (player_turn == WHITE && pieceType == KING)
 8003430:	d0a6e683 	ldbu	r2,-25702(gp)
 8003434:	10803fcc 	andi	r2,r2,255
 8003438:	10800058 	cmpnei	r2,r2,1
 800343c:	10002f1e 	bne	r2,zero,80034fc <makeMove+0x374>
 8003440:	e0bffb83 	ldbu	r2,-18(fp)
 8003444:	10800158 	cmpnei	r2,r2,5
 8003448:	10002c1e 	bne	r2,zero,80034fc <makeMove+0x374>
		{
			W_kingX = finalCol;
 800344c:	e0bfff03 	ldbu	r2,-4(fp)
 8003450:	d0a6e585 	stb	r2,-25706(gp)
			W_kingY = finalRow;
 8003454:	e0bffe03 	ldbu	r2,-8(fp)
 8003458:	d0a6e5c5 	stb	r2,-25705(gp)
			vga_ctrl->SQUARES[0 * 8 + 7] = EMPTY_SQUARE;
		}
		castling_status = NO_CASTLE;
		vga_ctrl->SQUARES[initRow * 8 + initCol] = EMPTY_SQUARE;
		vga_ctrl->SQUARES[finalRow * 8 + finalCol] = piece;
		if(player_turn == BLACK && pieceType == KING)
 800345c:	00002706 	br	80034fc <makeMove+0x374>
			W_kingY = finalRow;
		}
	}
	else
	{
		vga_ctrl->SQUARES[initRow * 8 + initCol] = EMPTY_SQUARE;
 8003460:	d0e00017 	ldw	r3,-32768(gp)
 8003464:	e0bffc03 	ldbu	r2,-16(fp)
 8003468:	100890fa 	slli	r4,r2,3
 800346c:	e0bffd03 	ldbu	r2,-12(fp)
 8003470:	2085883a 	add	r2,r4,r2
 8003474:	1885883a 	add	r2,r3,r2
 8003478:	00c00304 	movi	r3,12
 800347c:	10c00005 	stb	r3,0(r2)
		vga_ctrl->SQUARES[finalRow * 8 + finalCol] = piece;
 8003480:	d0e00017 	ldw	r3,-32768(gp)
 8003484:	e0bffe03 	ldbu	r2,-8(fp)
 8003488:	100890fa 	slli	r4,r2,3
 800348c:	e0bfff03 	ldbu	r2,-4(fp)
 8003490:	2085883a 	add	r2,r4,r2
 8003494:	1885883a 	add	r2,r3,r2
 8003498:	e0fffb03 	ldbu	r3,-20(fp)
 800349c:	10c00005 	stb	r3,0(r2)
		if(player_turn == BLACK && pieceType == KING)
 80034a0:	d0a6e683 	ldbu	r2,-25702(gp)
 80034a4:	10803fcc 	andi	r2,r2,255
 80034a8:	1000081e 	bne	r2,zero,80034cc <makeMove+0x344>
 80034ac:	e0bffb83 	ldbu	r2,-18(fp)
 80034b0:	10800158 	cmpnei	r2,r2,5
 80034b4:	1000051e 	bne	r2,zero,80034cc <makeMove+0x344>
		{
			B_kingX = finalCol;
 80034b8:	e0bfff03 	ldbu	r2,-4(fp)
 80034bc:	d0a6e605 	stb	r2,-25704(gp)
			B_kingY = finalRow;
 80034c0:	e0bffe03 	ldbu	r2,-8(fp)
 80034c4:	d0a6e645 	stb	r2,-25703(gp)
 80034c8:	00000d06 	br	8003500 <makeMove+0x378>
		}
		else if (player_turn == WHITE && pieceType == KING)
 80034cc:	d0a6e683 	ldbu	r2,-25702(gp)
 80034d0:	10803fcc 	andi	r2,r2,255
 80034d4:	10800058 	cmpnei	r2,r2,1
 80034d8:	1000091e 	bne	r2,zero,8003500 <makeMove+0x378>
 80034dc:	e0bffb83 	ldbu	r2,-18(fp)
 80034e0:	10800158 	cmpnei	r2,r2,5
 80034e4:	1000061e 	bne	r2,zero,8003500 <makeMove+0x378>
		{
			W_kingX = finalCol;
 80034e8:	e0bfff03 	ldbu	r2,-4(fp)
 80034ec:	d0a6e585 	stb	r2,-25706(gp)
			W_kingY = finalRow;
 80034f0:	e0bffe03 	ldbu	r2,-8(fp)
 80034f4:	d0a6e5c5 	stb	r2,-25705(gp)
 80034f8:	00000106 	br	8003500 <makeMove+0x378>
			vga_ctrl->SQUARES[0 * 8 + 7] = EMPTY_SQUARE;
		}
		castling_status = NO_CASTLE;
		vga_ctrl->SQUARES[initRow * 8 + initCol] = EMPTY_SQUARE;
		vga_ctrl->SQUARES[finalRow * 8 + finalCol] = piece;
		if(player_turn == BLACK && pieceType == KING)
 80034fc:	0001883a 	nop
			W_kingX = finalCol;
			W_kingY = finalRow;
		}
	}
	
	usleep(1000); // adds delay to give time for the hardware to update graphics
 8003500:	0100fa04 	movi	r4,1000
 8003504:	80168740 	call	8016874 <usleep>
	return 1;
 8003508:	00800044 	movi	r2,1
}
 800350c:	e037883a 	mov	sp,fp
 8003510:	dfc00117 	ldw	ra,4(sp)
 8003514:	df000017 	ldw	fp,0(sp)
 8003518:	dec00204 	addi	sp,sp,8
 800351c:	f800283a 	ret

08003520 <inCheck>:

// Return value is hashed for checkMate function in the following way: 64 * (piece value) + row * 8 + col + 1
// 0 is the return value for not in check
alt_u16 inCheck (alt_u8 initRow, alt_u8 initCol)
{
 8003520:	defffb04 	addi	sp,sp,-20
 8003524:	df000415 	stw	fp,16(sp)
 8003528:	df000404 	addi	fp,sp,16
 800352c:	2007883a 	mov	r3,r4
 8003530:	2805883a 	mov	r2,r5
 8003534:	e0fffe05 	stb	r3,-8(fp)
 8003538:	e0bfff05 	stb	r2,-4(fp)
	int r, c;

	// Knight moves logic
	if (initRow >= 2) {
 800353c:	e0bffe03 	ldbu	r2,-8(fp)
 8003540:	108000b0 	cmpltui	r2,r2,2
 8003544:	10002f1e 	bne	r2,zero,8003604 <inCheck+0xe4>
		if (initCol >= 1 && CHECK_SQUARE_ENEMY_IS_PIECE(initRow - 2, initCol - 1, player_turn, KNIGHT)) {
 8003548:	e0bfff03 	ldbu	r2,-4(fp)
 800354c:	10001526 	beq	r2,zero,80035a4 <inCheck+0x84>
 8003550:	d0e00017 	ldw	r3,-32768(gp)
 8003554:	e0bffe03 	ldbu	r2,-8(fp)
 8003558:	10bfff84 	addi	r2,r2,-2
 800355c:	100890fa 	slli	r4,r2,3
 8003560:	e0bfff03 	ldbu	r2,-4(fp)
 8003564:	10bfffc4 	addi	r2,r2,-1
 8003568:	2085883a 	add	r2,r4,r2
 800356c:	1885883a 	add	r2,r3,r2
 8003570:	10800003 	ldbu	r2,0(r2)
 8003574:	10803fcc 	andi	r2,r2,255
 8003578:	10c003cc 	andi	r3,r2,15
 800357c:	d0a6e683 	ldbu	r2,-25702(gp)
 8003580:	1080005c 	xori	r2,r2,1
 8003584:	10803fcc 	andi	r2,r2,255
 8003588:	10800104 	addi	r2,r2,4
 800358c:	1880051e 	bne	r3,r2,80035a4 <inCheck+0x84>
			return HASH(initRow - 2, initCol - 1, KNIGHT);
 8003590:	e0fffe03 	ldbu	r3,-8(fp)
 8003594:	e0bfff03 	ldbu	r2,-4(fp)
 8003598:	1885883a 	add	r2,r3,r2
 800359c:	10801c04 	addi	r2,r2,112
 80035a0:	00048206 	br	80047ac <inCheck+0x128c>
		}
		if (initCol <= 6 && CHECK_SQUARE_ENEMY_IS_PIECE(initRow - 2, initCol + 1, player_turn, KNIGHT)) {
 80035a4:	e0bfff03 	ldbu	r2,-4(fp)
 80035a8:	108001e8 	cmpgeui	r2,r2,7
 80035ac:	1000151e 	bne	r2,zero,8003604 <inCheck+0xe4>
 80035b0:	d0e00017 	ldw	r3,-32768(gp)
 80035b4:	e0bffe03 	ldbu	r2,-8(fp)
 80035b8:	10bfff84 	addi	r2,r2,-2
 80035bc:	100890fa 	slli	r4,r2,3
 80035c0:	e0bfff03 	ldbu	r2,-4(fp)
 80035c4:	10800044 	addi	r2,r2,1
 80035c8:	2085883a 	add	r2,r4,r2
 80035cc:	1885883a 	add	r2,r3,r2
 80035d0:	10800003 	ldbu	r2,0(r2)
 80035d4:	10803fcc 	andi	r2,r2,255
 80035d8:	10c003cc 	andi	r3,r2,15
 80035dc:	d0a6e683 	ldbu	r2,-25702(gp)
 80035e0:	1080005c 	xori	r2,r2,1
 80035e4:	10803fcc 	andi	r2,r2,255
 80035e8:	10800104 	addi	r2,r2,4
 80035ec:	1880051e 	bne	r3,r2,8003604 <inCheck+0xe4>
			return HASH(initRow - 2, initCol + 1, KNIGHT);
 80035f0:	e0fffe03 	ldbu	r3,-8(fp)
 80035f4:	e0bfff03 	ldbu	r2,-4(fp)
 80035f8:	1885883a 	add	r2,r3,r2
 80035fc:	10801c84 	addi	r2,r2,114
 8003600:	00046a06 	br	80047ac <inCheck+0x128c>
		}
	}
	if (initRow >= 1) {
 8003604:	e0bffe03 	ldbu	r2,-8(fp)
 8003608:	10003026 	beq	r2,zero,80036cc <inCheck+0x1ac>
		if (initCol >= 2 && CHECK_SQUARE_ENEMY_IS_PIECE(initRow - 1, initCol - 2, player_turn, KNIGHT)) {
 800360c:	e0bfff03 	ldbu	r2,-4(fp)
 8003610:	108000b0 	cmpltui	r2,r2,2
 8003614:	1000151e 	bne	r2,zero,800366c <inCheck+0x14c>
 8003618:	d0e00017 	ldw	r3,-32768(gp)
 800361c:	e0bffe03 	ldbu	r2,-8(fp)
 8003620:	10bfffc4 	addi	r2,r2,-1
 8003624:	100890fa 	slli	r4,r2,3
 8003628:	e0bfff03 	ldbu	r2,-4(fp)
 800362c:	10bfff84 	addi	r2,r2,-2
 8003630:	2085883a 	add	r2,r4,r2
 8003634:	1885883a 	add	r2,r3,r2
 8003638:	10800003 	ldbu	r2,0(r2)
 800363c:	10803fcc 	andi	r2,r2,255
 8003640:	10c003cc 	andi	r3,r2,15
 8003644:	d0a6e683 	ldbu	r2,-25702(gp)
 8003648:	1080005c 	xori	r2,r2,1
 800364c:	10803fcc 	andi	r2,r2,255
 8003650:	10800104 	addi	r2,r2,4
 8003654:	1880051e 	bne	r3,r2,800366c <inCheck+0x14c>
			return HASH(initRow - 1, initCol - 2, KNIGHT);
 8003658:	e0fffe03 	ldbu	r3,-8(fp)
 800365c:	e0bfff03 	ldbu	r2,-4(fp)
 8003660:	1885883a 	add	r2,r3,r2
 8003664:	10801dc4 	addi	r2,r2,119
 8003668:	00045006 	br	80047ac <inCheck+0x128c>
		}
		if (initCol <= 5 && CHECK_SQUARE_ENEMY_IS_PIECE(initRow - 1, initCol + 2, player_turn, KNIGHT)) {
 800366c:	e0bfff03 	ldbu	r2,-4(fp)
 8003670:	108001a8 	cmpgeui	r2,r2,6
 8003674:	1000151e 	bne	r2,zero,80036cc <inCheck+0x1ac>
 8003678:	d0e00017 	ldw	r3,-32768(gp)
 800367c:	e0bffe03 	ldbu	r2,-8(fp)
 8003680:	10bfffc4 	addi	r2,r2,-1
 8003684:	100890fa 	slli	r4,r2,3
 8003688:	e0bfff03 	ldbu	r2,-4(fp)
 800368c:	10800084 	addi	r2,r2,2
 8003690:	2085883a 	add	r2,r4,r2
 8003694:	1885883a 	add	r2,r3,r2
 8003698:	10800003 	ldbu	r2,0(r2)
 800369c:	10803fcc 	andi	r2,r2,255
 80036a0:	10c003cc 	andi	r3,r2,15
 80036a4:	d0a6e683 	ldbu	r2,-25702(gp)
 80036a8:	1080005c 	xori	r2,r2,1
 80036ac:	10803fcc 	andi	r2,r2,255
 80036b0:	10800104 	addi	r2,r2,4
 80036b4:	1880051e 	bne	r3,r2,80036cc <inCheck+0x1ac>
			return HASH(initRow - 1, initCol + 2, KNIGHT);
 80036b8:	e0fffe03 	ldbu	r3,-8(fp)
 80036bc:	e0bfff03 	ldbu	r2,-4(fp)
 80036c0:	1885883a 	add	r2,r3,r2
 80036c4:	10801ec4 	addi	r2,r2,123
 80036c8:	00043806 	br	80047ac <inCheck+0x128c>
		}
	}
	if (initRow <= 5) {
 80036cc:	e0bffe03 	ldbu	r2,-8(fp)
 80036d0:	108001a8 	cmpgeui	r2,r2,6
 80036d4:	10002f1e 	bne	r2,zero,8003794 <inCheck+0x274>
		if (initCol >= 1 && CHECK_SQUARE_ENEMY_IS_PIECE(initRow + 2, initCol - 1, player_turn, KNIGHT)) {
 80036d8:	e0bfff03 	ldbu	r2,-4(fp)
 80036dc:	10001526 	beq	r2,zero,8003734 <inCheck+0x214>
 80036e0:	d0e00017 	ldw	r3,-32768(gp)
 80036e4:	e0bffe03 	ldbu	r2,-8(fp)
 80036e8:	10800084 	addi	r2,r2,2
 80036ec:	100890fa 	slli	r4,r2,3
 80036f0:	e0bfff03 	ldbu	r2,-4(fp)
 80036f4:	10bfffc4 	addi	r2,r2,-1
 80036f8:	2085883a 	add	r2,r4,r2
 80036fc:	1885883a 	add	r2,r3,r2
 8003700:	10800003 	ldbu	r2,0(r2)
 8003704:	10803fcc 	andi	r2,r2,255
 8003708:	10c003cc 	andi	r3,r2,15
 800370c:	d0a6e683 	ldbu	r2,-25702(gp)
 8003710:	1080005c 	xori	r2,r2,1
 8003714:	10803fcc 	andi	r2,r2,255
 8003718:	10800104 	addi	r2,r2,4
 800371c:	1880051e 	bne	r3,r2,8003734 <inCheck+0x214>
			return HASH(initRow + 2, initCol - 1, KNIGHT);
 8003720:	e0fffe03 	ldbu	r3,-8(fp)
 8003724:	e0bfff03 	ldbu	r2,-4(fp)
 8003728:	1885883a 	add	r2,r3,r2
 800372c:	10802404 	addi	r2,r2,144
 8003730:	00041e06 	br	80047ac <inCheck+0x128c>
		}
		if (initCol <= 6 && CHECK_SQUARE_ENEMY_IS_PIECE(initRow + 2, initCol + 1, player_turn, KNIGHT)) {
 8003734:	e0bfff03 	ldbu	r2,-4(fp)
 8003738:	108001e8 	cmpgeui	r2,r2,7
 800373c:	1000151e 	bne	r2,zero,8003794 <inCheck+0x274>
 8003740:	d0e00017 	ldw	r3,-32768(gp)
 8003744:	e0bffe03 	ldbu	r2,-8(fp)
 8003748:	10800084 	addi	r2,r2,2
 800374c:	100890fa 	slli	r4,r2,3
 8003750:	e0bfff03 	ldbu	r2,-4(fp)
 8003754:	10800044 	addi	r2,r2,1
 8003758:	2085883a 	add	r2,r4,r2
 800375c:	1885883a 	add	r2,r3,r2
 8003760:	10800003 	ldbu	r2,0(r2)
 8003764:	10803fcc 	andi	r2,r2,255
 8003768:	10c003cc 	andi	r3,r2,15
 800376c:	d0a6e683 	ldbu	r2,-25702(gp)
 8003770:	1080005c 	xori	r2,r2,1
 8003774:	10803fcc 	andi	r2,r2,255
 8003778:	10800104 	addi	r2,r2,4
 800377c:	1880051e 	bne	r3,r2,8003794 <inCheck+0x274>
			return HASH(initRow + 2, initCol + 1, KNIGHT);
 8003780:	e0fffe03 	ldbu	r3,-8(fp)
 8003784:	e0bfff03 	ldbu	r2,-4(fp)
 8003788:	1885883a 	add	r2,r3,r2
 800378c:	10802484 	addi	r2,r2,146
 8003790:	00040606 	br	80047ac <inCheck+0x128c>
		}
	}
	if (initRow <= 6) {
 8003794:	e0bffe03 	ldbu	r2,-8(fp)
 8003798:	108001e8 	cmpgeui	r2,r2,7
 800379c:	1000301e 	bne	r2,zero,8003860 <inCheck+0x340>
		if (initCol >= 2 && CHECK_SQUARE_ENEMY_IS_PIECE(initRow + 1, initCol - 2, player_turn, KNIGHT)) {
 80037a0:	e0bfff03 	ldbu	r2,-4(fp)
 80037a4:	108000b0 	cmpltui	r2,r2,2
 80037a8:	1000151e 	bne	r2,zero,8003800 <inCheck+0x2e0>
 80037ac:	d0e00017 	ldw	r3,-32768(gp)
 80037b0:	e0bffe03 	ldbu	r2,-8(fp)
 80037b4:	10800044 	addi	r2,r2,1
 80037b8:	100890fa 	slli	r4,r2,3
 80037bc:	e0bfff03 	ldbu	r2,-4(fp)
 80037c0:	10bfff84 	addi	r2,r2,-2
 80037c4:	2085883a 	add	r2,r4,r2
 80037c8:	1885883a 	add	r2,r3,r2
 80037cc:	10800003 	ldbu	r2,0(r2)
 80037d0:	10803fcc 	andi	r2,r2,255
 80037d4:	10c003cc 	andi	r3,r2,15
 80037d8:	d0a6e683 	ldbu	r2,-25702(gp)
 80037dc:	1080005c 	xori	r2,r2,1
 80037e0:	10803fcc 	andi	r2,r2,255
 80037e4:	10800104 	addi	r2,r2,4
 80037e8:	1880051e 	bne	r3,r2,8003800 <inCheck+0x2e0>
			return HASH(initRow + 1, initCol - 2, KNIGHT);
 80037ec:	e0fffe03 	ldbu	r3,-8(fp)
 80037f0:	e0bfff03 	ldbu	r2,-4(fp)
 80037f4:	1885883a 	add	r2,r3,r2
 80037f8:	108021c4 	addi	r2,r2,135
 80037fc:	0003eb06 	br	80047ac <inCheck+0x128c>
		}
		if (initCol <= 5 && CHECK_SQUARE_ENEMY_IS_PIECE(initRow + 1, initCol + 2, player_turn, KNIGHT)) {
 8003800:	e0bfff03 	ldbu	r2,-4(fp)
 8003804:	108001a8 	cmpgeui	r2,r2,6
 8003808:	1000151e 	bne	r2,zero,8003860 <inCheck+0x340>
 800380c:	d0e00017 	ldw	r3,-32768(gp)
 8003810:	e0bffe03 	ldbu	r2,-8(fp)
 8003814:	10800044 	addi	r2,r2,1
 8003818:	100890fa 	slli	r4,r2,3
 800381c:	e0bfff03 	ldbu	r2,-4(fp)
 8003820:	10800084 	addi	r2,r2,2
 8003824:	2085883a 	add	r2,r4,r2
 8003828:	1885883a 	add	r2,r3,r2
 800382c:	10800003 	ldbu	r2,0(r2)
 8003830:	10803fcc 	andi	r2,r2,255
 8003834:	10c003cc 	andi	r3,r2,15
 8003838:	d0a6e683 	ldbu	r2,-25702(gp)
 800383c:	1080005c 	xori	r2,r2,1
 8003840:	10803fcc 	andi	r2,r2,255
 8003844:	10800104 	addi	r2,r2,4
 8003848:	1880051e 	bne	r3,r2,8003860 <inCheck+0x340>
			return HASH(initRow + 1, initCol + 2, KNIGHT);
 800384c:	e0fffe03 	ldbu	r3,-8(fp)
 8003850:	e0bfff03 	ldbu	r2,-4(fp)
 8003854:	1885883a 	add	r2,r3,r2
 8003858:	108022c4 	addi	r2,r2,139
 800385c:	0003d306 	br	80047ac <inCheck+0x128c>
		}
	}

	// Diagonal move logic
	r = initRow - 1;
 8003860:	e0bffe03 	ldbu	r2,-8(fp)
 8003864:	10bfffc4 	addi	r2,r2,-1
 8003868:	e0bffc15 	stw	r2,-16(fp)
	c = initCol - 1;
 800386c:	e0bfff03 	ldbu	r2,-4(fp)
 8003870:	10bfffc4 	addi	r2,r2,-1
 8003874:	e0bffd15 	stw	r2,-12(fp)
	if (r >= 0 && c >= 0) {
 8003878:	e0bffc17 	ldw	r2,-16(fp)
 800387c:	10007b16 	blt	r2,zero,8003a6c <inCheck+0x54c>
 8003880:	e0bffd17 	ldw	r2,-12(fp)
 8003884:	10007916 	blt	r2,zero,8003a6c <inCheck+0x54c>
		if (CHECK_SQUARE_ENEMY_IS_PIECE(r,c,player_turn, KING)){
 8003888:	d0e00017 	ldw	r3,-32768(gp)
 800388c:	e0bffc17 	ldw	r2,-16(fp)
 8003890:	100890fa 	slli	r4,r2,3
 8003894:	e0bffd17 	ldw	r2,-12(fp)
 8003898:	2085883a 	add	r2,r4,r2
 800389c:	1885883a 	add	r2,r3,r2
 80038a0:	10800003 	ldbu	r2,0(r2)
 80038a4:	10803fcc 	andi	r2,r2,255
 80038a8:	10c003cc 	andi	r3,r2,15
 80038ac:	d0a6e683 	ldbu	r2,-25702(gp)
 80038b0:	1080005c 	xori	r2,r2,1
 80038b4:	10803fcc 	andi	r2,r2,255
 80038b8:	10800284 	addi	r2,r2,10
 80038bc:	1880081e 	bne	r3,r2,80038e0 <inCheck+0x3c0>
			return HASH(r, c, KING);
 80038c0:	e0bffc17 	ldw	r2,-16(fp)
 80038c4:	10800a04 	addi	r2,r2,40
 80038c8:	100490fa 	slli	r2,r2,3
 80038cc:	1007883a 	mov	r3,r2
 80038d0:	e0bffd17 	ldw	r2,-12(fp)
 80038d4:	1885883a 	add	r2,r3,r2
 80038d8:	10800044 	addi	r2,r2,1
 80038dc:	0003b306 	br	80047ac <inCheck+0x128c>
		}
		else if ((player_turn == WHITE) && CHECK_SQUARE_ENEMY_IS_PIECE(r,c,player_turn, PAWN)) {
 80038e0:	d0a6e683 	ldbu	r2,-25702(gp)
 80038e4:	10803fcc 	andi	r2,r2,255
 80038e8:	10800058 	cmpnei	r2,r2,1
 80038ec:	10005f1e 	bne	r2,zero,8003a6c <inCheck+0x54c>
 80038f0:	d0e00017 	ldw	r3,-32768(gp)
 80038f4:	e0bffc17 	ldw	r2,-16(fp)
 80038f8:	100890fa 	slli	r4,r2,3
 80038fc:	e0bffd17 	ldw	r2,-12(fp)
 8003900:	2085883a 	add	r2,r4,r2
 8003904:	1885883a 	add	r2,r3,r2
 8003908:	10800003 	ldbu	r2,0(r2)
 800390c:	10803fcc 	andi	r2,r2,255
 8003910:	10c003cc 	andi	r3,r2,15
 8003914:	d0a6e683 	ldbu	r2,-25702(gp)
 8003918:	1080005c 	xori	r2,r2,1
 800391c:	10803fcc 	andi	r2,r2,255
 8003920:	1880521e 	bne	r3,r2,8003a6c <inCheck+0x54c>
			return HASH(r, c, PAWN);
 8003924:	e0bffc17 	ldw	r2,-16(fp)
 8003928:	100490fa 	slli	r2,r2,3
 800392c:	1007883a 	mov	r3,r2
 8003930:	e0bffd17 	ldw	r2,-12(fp)
 8003934:	1885883a 	add	r2,r3,r2
 8003938:	10800044 	addi	r2,r2,1
 800393c:	00039b06 	br	80047ac <inCheck+0x128c>
		}
	}
	while (r >= 0 && c >= 0) {
		if (CHECK_SQUARE_EMPTY(r, c) || CHECK_SQUARE_FRIENDLY_IS_KING(r, c, player_turn)) {
 8003940:	d0e00017 	ldw	r3,-32768(gp)
 8003944:	e0bffc17 	ldw	r2,-16(fp)
 8003948:	100890fa 	slli	r4,r2,3
 800394c:	e0bffd17 	ldw	r2,-12(fp)
 8003950:	2085883a 	add	r2,r4,r2
 8003954:	1885883a 	add	r2,r3,r2
 8003958:	10800003 	ldbu	r2,0(r2)
 800395c:	10803fcc 	andi	r2,r2,255
 8003960:	108003cc 	andi	r2,r2,15
 8003964:	10800320 	cmpeqi	r2,r2,12
 8003968:	10000d1e 	bne	r2,zero,80039a0 <inCheck+0x480>
 800396c:	d0e00017 	ldw	r3,-32768(gp)
 8003970:	e0bffc17 	ldw	r2,-16(fp)
 8003974:	100890fa 	slli	r4,r2,3
 8003978:	e0bffd17 	ldw	r2,-12(fp)
 800397c:	2085883a 	add	r2,r4,r2
 8003980:	1885883a 	add	r2,r3,r2
 8003984:	10800003 	ldbu	r2,0(r2)
 8003988:	10803fcc 	andi	r2,r2,255
 800398c:	10c003cc 	andi	r3,r2,15
 8003990:	d0a6e683 	ldbu	r2,-25702(gp)
 8003994:	10803fcc 	andi	r2,r2,255
 8003998:	10800284 	addi	r2,r2,10
 800399c:	1880071e 	bne	r3,r2,80039bc <inCheck+0x49c>
			r--;
 80039a0:	e0bffc17 	ldw	r2,-16(fp)
 80039a4:	10bfffc4 	addi	r2,r2,-1
 80039a8:	e0bffc15 	stw	r2,-16(fp)
			c--;
 80039ac:	e0bffd17 	ldw	r2,-12(fp)
 80039b0:	10bfffc4 	addi	r2,r2,-1
 80039b4:	e0bffd15 	stw	r2,-12(fp)
 80039b8:	00002c06 	br	8003a6c <inCheck+0x54c>
		}
		else if (CHECK_SQUARE_ENEMY_IS_PIECE(r,c,player_turn, BISHOP)) {
 80039bc:	d0e00017 	ldw	r3,-32768(gp)
 80039c0:	e0bffc17 	ldw	r2,-16(fp)
 80039c4:	100890fa 	slli	r4,r2,3
 80039c8:	e0bffd17 	ldw	r2,-12(fp)
 80039cc:	2085883a 	add	r2,r4,r2
 80039d0:	1885883a 	add	r2,r3,r2
 80039d4:	10800003 	ldbu	r2,0(r2)
 80039d8:	10803fcc 	andi	r2,r2,255
 80039dc:	10c003cc 	andi	r3,r2,15
 80039e0:	d0a6e683 	ldbu	r2,-25702(gp)
 80039e4:	1080005c 	xori	r2,r2,1
 80039e8:	10803fcc 	andi	r2,r2,255
 80039ec:	10800084 	addi	r2,r2,2
 80039f0:	1880081e 	bne	r3,r2,8003a14 <inCheck+0x4f4>
			return HASH(r, c, BISHOP);
 80039f4:	e0bffc17 	ldw	r2,-16(fp)
 80039f8:	10800204 	addi	r2,r2,8
 80039fc:	100490fa 	slli	r2,r2,3
 8003a00:	1007883a 	mov	r3,r2
 8003a04:	e0bffd17 	ldw	r2,-12(fp)
 8003a08:	1885883a 	add	r2,r3,r2
 8003a0c:	10800044 	addi	r2,r2,1
 8003a10:	00036606 	br	80047ac <inCheck+0x128c>
		}
		else if (CHECK_SQUARE_ENEMY_IS_PIECE(r,c,player_turn, QUEEN)) {
 8003a14:	d0e00017 	ldw	r3,-32768(gp)
 8003a18:	e0bffc17 	ldw	r2,-16(fp)
 8003a1c:	100890fa 	slli	r4,r2,3
 8003a20:	e0bffd17 	ldw	r2,-12(fp)
 8003a24:	2085883a 	add	r2,r4,r2
 8003a28:	1885883a 	add	r2,r3,r2
 8003a2c:	10800003 	ldbu	r2,0(r2)
 8003a30:	10803fcc 	andi	r2,r2,255
 8003a34:	10c003cc 	andi	r3,r2,15
 8003a38:	d0a6e683 	ldbu	r2,-25702(gp)
 8003a3c:	1080005c 	xori	r2,r2,1
 8003a40:	10803fcc 	andi	r2,r2,255
 8003a44:	10800204 	addi	r2,r2,8
 8003a48:	18800d1e 	bne	r3,r2,8003a80 <inCheck+0x560>
			return HASH(r, c, QUEEN);
 8003a4c:	e0bffc17 	ldw	r2,-16(fp)
 8003a50:	10800804 	addi	r2,r2,32
 8003a54:	100490fa 	slli	r2,r2,3
 8003a58:	1007883a 	mov	r3,r2
 8003a5c:	e0bffd17 	ldw	r2,-12(fp)
 8003a60:	1885883a 	add	r2,r3,r2
 8003a64:	10800044 	addi	r2,r2,1
 8003a68:	00035006 	br	80047ac <inCheck+0x128c>
		}
		else if ((player_turn == WHITE) && CHECK_SQUARE_ENEMY_IS_PIECE(r,c,player_turn, PAWN)) {
			return HASH(r, c, PAWN);
		}
	}
	while (r >= 0 && c >= 0) {
 8003a6c:	e0bffc17 	ldw	r2,-16(fp)
 8003a70:	10000416 	blt	r2,zero,8003a84 <inCheck+0x564>
 8003a74:	e0bffd17 	ldw	r2,-12(fp)
 8003a78:	103fb10e 	bge	r2,zero,8003940 <__alt_data_end+0xfc003940>
 8003a7c:	00000106 	br	8003a84 <inCheck+0x564>
			return HASH(r, c, BISHOP);
		}
		else if (CHECK_SQUARE_ENEMY_IS_PIECE(r,c,player_turn, QUEEN)) {
			return HASH(r, c, QUEEN);
		}
		else break;
 8003a80:	0001883a 	nop
	}

	r = initRow + 1;
 8003a84:	e0bffe03 	ldbu	r2,-8(fp)
 8003a88:	10800044 	addi	r2,r2,1
 8003a8c:	e0bffc15 	stw	r2,-16(fp)
	c = initCol - 1;
 8003a90:	e0bfff03 	ldbu	r2,-4(fp)
 8003a94:	10bfffc4 	addi	r2,r2,-1
 8003a98:	e0bffd15 	stw	r2,-12(fp)
	if (r < ROWS && c >= 0) {
 8003a9c:	e0bffc17 	ldw	r2,-16(fp)
 8003aa0:	10800208 	cmpgei	r2,r2,8
 8003aa4:	10007a1e 	bne	r2,zero,8003c90 <inCheck+0x770>
 8003aa8:	e0bffd17 	ldw	r2,-12(fp)
 8003aac:	10007816 	blt	r2,zero,8003c90 <inCheck+0x770>
		if (CHECK_SQUARE_ENEMY_IS_PIECE(r,c,player_turn, KING)){
 8003ab0:	d0e00017 	ldw	r3,-32768(gp)
 8003ab4:	e0bffc17 	ldw	r2,-16(fp)
 8003ab8:	100890fa 	slli	r4,r2,3
 8003abc:	e0bffd17 	ldw	r2,-12(fp)
 8003ac0:	2085883a 	add	r2,r4,r2
 8003ac4:	1885883a 	add	r2,r3,r2
 8003ac8:	10800003 	ldbu	r2,0(r2)
 8003acc:	10803fcc 	andi	r2,r2,255
 8003ad0:	10c003cc 	andi	r3,r2,15
 8003ad4:	d0a6e683 	ldbu	r2,-25702(gp)
 8003ad8:	1080005c 	xori	r2,r2,1
 8003adc:	10803fcc 	andi	r2,r2,255
 8003ae0:	10800284 	addi	r2,r2,10
 8003ae4:	1880081e 	bne	r3,r2,8003b08 <inCheck+0x5e8>
			return HASH(r, c, KING);
 8003ae8:	e0bffc17 	ldw	r2,-16(fp)
 8003aec:	10800a04 	addi	r2,r2,40
 8003af0:	100490fa 	slli	r2,r2,3
 8003af4:	1007883a 	mov	r3,r2
 8003af8:	e0bffd17 	ldw	r2,-12(fp)
 8003afc:	1885883a 	add	r2,r3,r2
 8003b00:	10800044 	addi	r2,r2,1
 8003b04:	00032906 	br	80047ac <inCheck+0x128c>
		}
		else if ((player_turn == BLACK) && CHECK_SQUARE_ENEMY_IS_PIECE(r,c,player_turn, PAWN)) {
 8003b08:	d0a6e683 	ldbu	r2,-25702(gp)
 8003b0c:	10803fcc 	andi	r2,r2,255
 8003b10:	10005f1e 	bne	r2,zero,8003c90 <inCheck+0x770>
 8003b14:	d0e00017 	ldw	r3,-32768(gp)
 8003b18:	e0bffc17 	ldw	r2,-16(fp)
 8003b1c:	100890fa 	slli	r4,r2,3
 8003b20:	e0bffd17 	ldw	r2,-12(fp)
 8003b24:	2085883a 	add	r2,r4,r2
 8003b28:	1885883a 	add	r2,r3,r2
 8003b2c:	10800003 	ldbu	r2,0(r2)
 8003b30:	10803fcc 	andi	r2,r2,255
 8003b34:	10c003cc 	andi	r3,r2,15
 8003b38:	d0a6e683 	ldbu	r2,-25702(gp)
 8003b3c:	1080005c 	xori	r2,r2,1
 8003b40:	10803fcc 	andi	r2,r2,255
 8003b44:	1880521e 	bne	r3,r2,8003c90 <inCheck+0x770>
			return HASH(r, c, PAWN);
 8003b48:	e0bffc17 	ldw	r2,-16(fp)
 8003b4c:	100490fa 	slli	r2,r2,3
 8003b50:	1007883a 	mov	r3,r2
 8003b54:	e0bffd17 	ldw	r2,-12(fp)
 8003b58:	1885883a 	add	r2,r3,r2
 8003b5c:	10800044 	addi	r2,r2,1
 8003b60:	00031206 	br	80047ac <inCheck+0x128c>
		}
	}
	while (r < ROWS && c >= 0) {
		if (CHECK_SQUARE_EMPTY(r, c) || CHECK_SQUARE_FRIENDLY_IS_KING(r, c, player_turn)) {
 8003b64:	d0e00017 	ldw	r3,-32768(gp)
 8003b68:	e0bffc17 	ldw	r2,-16(fp)
 8003b6c:	100890fa 	slli	r4,r2,3
 8003b70:	e0bffd17 	ldw	r2,-12(fp)
 8003b74:	2085883a 	add	r2,r4,r2
 8003b78:	1885883a 	add	r2,r3,r2
 8003b7c:	10800003 	ldbu	r2,0(r2)
 8003b80:	10803fcc 	andi	r2,r2,255
 8003b84:	108003cc 	andi	r2,r2,15
 8003b88:	10800320 	cmpeqi	r2,r2,12
 8003b8c:	10000d1e 	bne	r2,zero,8003bc4 <inCheck+0x6a4>
 8003b90:	d0e00017 	ldw	r3,-32768(gp)
 8003b94:	e0bffc17 	ldw	r2,-16(fp)
 8003b98:	100890fa 	slli	r4,r2,3
 8003b9c:	e0bffd17 	ldw	r2,-12(fp)
 8003ba0:	2085883a 	add	r2,r4,r2
 8003ba4:	1885883a 	add	r2,r3,r2
 8003ba8:	10800003 	ldbu	r2,0(r2)
 8003bac:	10803fcc 	andi	r2,r2,255
 8003bb0:	10c003cc 	andi	r3,r2,15
 8003bb4:	d0a6e683 	ldbu	r2,-25702(gp)
 8003bb8:	10803fcc 	andi	r2,r2,255
 8003bbc:	10800284 	addi	r2,r2,10
 8003bc0:	1880071e 	bne	r3,r2,8003be0 <inCheck+0x6c0>
			r++;
 8003bc4:	e0bffc17 	ldw	r2,-16(fp)
 8003bc8:	10800044 	addi	r2,r2,1
 8003bcc:	e0bffc15 	stw	r2,-16(fp)
			c--;
 8003bd0:	e0bffd17 	ldw	r2,-12(fp)
 8003bd4:	10bfffc4 	addi	r2,r2,-1
 8003bd8:	e0bffd15 	stw	r2,-12(fp)
 8003bdc:	00002c06 	br	8003c90 <inCheck+0x770>
		}
		else if (CHECK_SQUARE_ENEMY_IS_PIECE(r,c,player_turn, BISHOP)) {
 8003be0:	d0e00017 	ldw	r3,-32768(gp)
 8003be4:	e0bffc17 	ldw	r2,-16(fp)
 8003be8:	100890fa 	slli	r4,r2,3
 8003bec:	e0bffd17 	ldw	r2,-12(fp)
 8003bf0:	2085883a 	add	r2,r4,r2
 8003bf4:	1885883a 	add	r2,r3,r2
 8003bf8:	10800003 	ldbu	r2,0(r2)
 8003bfc:	10803fcc 	andi	r2,r2,255
 8003c00:	10c003cc 	andi	r3,r2,15
 8003c04:	d0a6e683 	ldbu	r2,-25702(gp)
 8003c08:	1080005c 	xori	r2,r2,1
 8003c0c:	10803fcc 	andi	r2,r2,255
 8003c10:	10800084 	addi	r2,r2,2
 8003c14:	1880081e 	bne	r3,r2,8003c38 <inCheck+0x718>
			return HASH(r, c, BISHOP);
 8003c18:	e0bffc17 	ldw	r2,-16(fp)
 8003c1c:	10800204 	addi	r2,r2,8
 8003c20:	100490fa 	slli	r2,r2,3
 8003c24:	1007883a 	mov	r3,r2
 8003c28:	e0bffd17 	ldw	r2,-12(fp)
 8003c2c:	1885883a 	add	r2,r3,r2
 8003c30:	10800044 	addi	r2,r2,1
 8003c34:	0002dd06 	br	80047ac <inCheck+0x128c>
		}
		else if (CHECK_SQUARE_ENEMY_IS_PIECE(r,c,player_turn, QUEEN)) {
 8003c38:	d0e00017 	ldw	r3,-32768(gp)
 8003c3c:	e0bffc17 	ldw	r2,-16(fp)
 8003c40:	100890fa 	slli	r4,r2,3
 8003c44:	e0bffd17 	ldw	r2,-12(fp)
 8003c48:	2085883a 	add	r2,r4,r2
 8003c4c:	1885883a 	add	r2,r3,r2
 8003c50:	10800003 	ldbu	r2,0(r2)
 8003c54:	10803fcc 	andi	r2,r2,255
 8003c58:	10c003cc 	andi	r3,r2,15
 8003c5c:	d0a6e683 	ldbu	r2,-25702(gp)
 8003c60:	1080005c 	xori	r2,r2,1
 8003c64:	10803fcc 	andi	r2,r2,255
 8003c68:	10800204 	addi	r2,r2,8
 8003c6c:	18800e1e 	bne	r3,r2,8003ca8 <inCheck+0x788>
			return HASH(r, c, QUEEN);
 8003c70:	e0bffc17 	ldw	r2,-16(fp)
 8003c74:	10800804 	addi	r2,r2,32
 8003c78:	100490fa 	slli	r2,r2,3
 8003c7c:	1007883a 	mov	r3,r2
 8003c80:	e0bffd17 	ldw	r2,-12(fp)
 8003c84:	1885883a 	add	r2,r3,r2
 8003c88:	10800044 	addi	r2,r2,1
 8003c8c:	0002c706 	br	80047ac <inCheck+0x128c>
		}
		else if ((player_turn == BLACK) && CHECK_SQUARE_ENEMY_IS_PIECE(r,c,player_turn, PAWN)) {
			return HASH(r, c, PAWN);
		}
	}
	while (r < ROWS && c >= 0) {
 8003c90:	e0bffc17 	ldw	r2,-16(fp)
 8003c94:	10800208 	cmpgei	r2,r2,8
 8003c98:	1000041e 	bne	r2,zero,8003cac <inCheck+0x78c>
 8003c9c:	e0bffd17 	ldw	r2,-12(fp)
 8003ca0:	103fb00e 	bge	r2,zero,8003b64 <__alt_data_end+0xfc003b64>
 8003ca4:	00000106 	br	8003cac <inCheck+0x78c>
			return HASH(r, c, BISHOP);
		}
		else if (CHECK_SQUARE_ENEMY_IS_PIECE(r,c,player_turn, QUEEN)) {
			return HASH(r, c, QUEEN);
		}
		else break;
 8003ca8:	0001883a 	nop
	}

	r = initRow - 1;
 8003cac:	e0bffe03 	ldbu	r2,-8(fp)
 8003cb0:	10bfffc4 	addi	r2,r2,-1
 8003cb4:	e0bffc15 	stw	r2,-16(fp)
	c = initCol + 1;
 8003cb8:	e0bfff03 	ldbu	r2,-4(fp)
 8003cbc:	10800044 	addi	r2,r2,1
 8003cc0:	e0bffd15 	stw	r2,-12(fp)
	if (r >= 0 && c < COLUMNS) {
 8003cc4:	e0bffc17 	ldw	r2,-16(fp)
 8003cc8:	10007c16 	blt	r2,zero,8003ebc <inCheck+0x99c>
 8003ccc:	e0bffd17 	ldw	r2,-12(fp)
 8003cd0:	10800208 	cmpgei	r2,r2,8
 8003cd4:	1000791e 	bne	r2,zero,8003ebc <inCheck+0x99c>
		if (CHECK_SQUARE_ENEMY_IS_PIECE(r,c,player_turn, KING)){
 8003cd8:	d0e00017 	ldw	r3,-32768(gp)
 8003cdc:	e0bffc17 	ldw	r2,-16(fp)
 8003ce0:	100890fa 	slli	r4,r2,3
 8003ce4:	e0bffd17 	ldw	r2,-12(fp)
 8003ce8:	2085883a 	add	r2,r4,r2
 8003cec:	1885883a 	add	r2,r3,r2
 8003cf0:	10800003 	ldbu	r2,0(r2)
 8003cf4:	10803fcc 	andi	r2,r2,255
 8003cf8:	10c003cc 	andi	r3,r2,15
 8003cfc:	d0a6e683 	ldbu	r2,-25702(gp)
 8003d00:	1080005c 	xori	r2,r2,1
 8003d04:	10803fcc 	andi	r2,r2,255
 8003d08:	10800284 	addi	r2,r2,10
 8003d0c:	1880081e 	bne	r3,r2,8003d30 <inCheck+0x810>
			return HASH(r, c, KING);
 8003d10:	e0bffc17 	ldw	r2,-16(fp)
 8003d14:	10800a04 	addi	r2,r2,40
 8003d18:	100490fa 	slli	r2,r2,3
 8003d1c:	1007883a 	mov	r3,r2
 8003d20:	e0bffd17 	ldw	r2,-12(fp)
 8003d24:	1885883a 	add	r2,r3,r2
 8003d28:	10800044 	addi	r2,r2,1
 8003d2c:	00029f06 	br	80047ac <inCheck+0x128c>
		}
		else if ((player_turn == WHITE) && CHECK_SQUARE_ENEMY_IS_PIECE(r,c,player_turn, PAWN)) {
 8003d30:	d0a6e683 	ldbu	r2,-25702(gp)
 8003d34:	10803fcc 	andi	r2,r2,255
 8003d38:	10800058 	cmpnei	r2,r2,1
 8003d3c:	10005f1e 	bne	r2,zero,8003ebc <inCheck+0x99c>
 8003d40:	d0e00017 	ldw	r3,-32768(gp)
 8003d44:	e0bffc17 	ldw	r2,-16(fp)
 8003d48:	100890fa 	slli	r4,r2,3
 8003d4c:	e0bffd17 	ldw	r2,-12(fp)
 8003d50:	2085883a 	add	r2,r4,r2
 8003d54:	1885883a 	add	r2,r3,r2
 8003d58:	10800003 	ldbu	r2,0(r2)
 8003d5c:	10803fcc 	andi	r2,r2,255
 8003d60:	10c003cc 	andi	r3,r2,15
 8003d64:	d0a6e683 	ldbu	r2,-25702(gp)
 8003d68:	1080005c 	xori	r2,r2,1
 8003d6c:	10803fcc 	andi	r2,r2,255
 8003d70:	1880521e 	bne	r3,r2,8003ebc <inCheck+0x99c>
			return HASH(r, c, PAWN);
 8003d74:	e0bffc17 	ldw	r2,-16(fp)
 8003d78:	100490fa 	slli	r2,r2,3
 8003d7c:	1007883a 	mov	r3,r2
 8003d80:	e0bffd17 	ldw	r2,-12(fp)
 8003d84:	1885883a 	add	r2,r3,r2
 8003d88:	10800044 	addi	r2,r2,1
 8003d8c:	00028706 	br	80047ac <inCheck+0x128c>
		}
	}
	while (r >= 0 && c < COLUMNS) {
		if (CHECK_SQUARE_EMPTY(r, c) || CHECK_SQUARE_FRIENDLY_IS_KING(r, c, player_turn)) {
 8003d90:	d0e00017 	ldw	r3,-32768(gp)
 8003d94:	e0bffc17 	ldw	r2,-16(fp)
 8003d98:	100890fa 	slli	r4,r2,3
 8003d9c:	e0bffd17 	ldw	r2,-12(fp)
 8003da0:	2085883a 	add	r2,r4,r2
 8003da4:	1885883a 	add	r2,r3,r2
 8003da8:	10800003 	ldbu	r2,0(r2)
 8003dac:	10803fcc 	andi	r2,r2,255
 8003db0:	108003cc 	andi	r2,r2,15
 8003db4:	10800320 	cmpeqi	r2,r2,12
 8003db8:	10000d1e 	bne	r2,zero,8003df0 <inCheck+0x8d0>
 8003dbc:	d0e00017 	ldw	r3,-32768(gp)
 8003dc0:	e0bffc17 	ldw	r2,-16(fp)
 8003dc4:	100890fa 	slli	r4,r2,3
 8003dc8:	e0bffd17 	ldw	r2,-12(fp)
 8003dcc:	2085883a 	add	r2,r4,r2
 8003dd0:	1885883a 	add	r2,r3,r2
 8003dd4:	10800003 	ldbu	r2,0(r2)
 8003dd8:	10803fcc 	andi	r2,r2,255
 8003ddc:	10c003cc 	andi	r3,r2,15
 8003de0:	d0a6e683 	ldbu	r2,-25702(gp)
 8003de4:	10803fcc 	andi	r2,r2,255
 8003de8:	10800284 	addi	r2,r2,10
 8003dec:	1880071e 	bne	r3,r2,8003e0c <inCheck+0x8ec>
			r--;
 8003df0:	e0bffc17 	ldw	r2,-16(fp)
 8003df4:	10bfffc4 	addi	r2,r2,-1
 8003df8:	e0bffc15 	stw	r2,-16(fp)
			c++;
 8003dfc:	e0bffd17 	ldw	r2,-12(fp)
 8003e00:	10800044 	addi	r2,r2,1
 8003e04:	e0bffd15 	stw	r2,-12(fp)
 8003e08:	00002c06 	br	8003ebc <inCheck+0x99c>
		}
		else if (CHECK_SQUARE_ENEMY_IS_PIECE(r,c,player_turn, BISHOP)) {
 8003e0c:	d0e00017 	ldw	r3,-32768(gp)
 8003e10:	e0bffc17 	ldw	r2,-16(fp)
 8003e14:	100890fa 	slli	r4,r2,3
 8003e18:	e0bffd17 	ldw	r2,-12(fp)
 8003e1c:	2085883a 	add	r2,r4,r2
 8003e20:	1885883a 	add	r2,r3,r2
 8003e24:	10800003 	ldbu	r2,0(r2)
 8003e28:	10803fcc 	andi	r2,r2,255
 8003e2c:	10c003cc 	andi	r3,r2,15
 8003e30:	d0a6e683 	ldbu	r2,-25702(gp)
 8003e34:	1080005c 	xori	r2,r2,1
 8003e38:	10803fcc 	andi	r2,r2,255
 8003e3c:	10800084 	addi	r2,r2,2
 8003e40:	1880081e 	bne	r3,r2,8003e64 <inCheck+0x944>
			return HASH(r, c, BISHOP);
 8003e44:	e0bffc17 	ldw	r2,-16(fp)
 8003e48:	10800204 	addi	r2,r2,8
 8003e4c:	100490fa 	slli	r2,r2,3
 8003e50:	1007883a 	mov	r3,r2
 8003e54:	e0bffd17 	ldw	r2,-12(fp)
 8003e58:	1885883a 	add	r2,r3,r2
 8003e5c:	10800044 	addi	r2,r2,1
 8003e60:	00025206 	br	80047ac <inCheck+0x128c>
		}
		else if (CHECK_SQUARE_ENEMY_IS_PIECE(r,c,player_turn, QUEEN)) {
 8003e64:	d0e00017 	ldw	r3,-32768(gp)
 8003e68:	e0bffc17 	ldw	r2,-16(fp)
 8003e6c:	100890fa 	slli	r4,r2,3
 8003e70:	e0bffd17 	ldw	r2,-12(fp)
 8003e74:	2085883a 	add	r2,r4,r2
 8003e78:	1885883a 	add	r2,r3,r2
 8003e7c:	10800003 	ldbu	r2,0(r2)
 8003e80:	10803fcc 	andi	r2,r2,255
 8003e84:	10c003cc 	andi	r3,r2,15
 8003e88:	d0a6e683 	ldbu	r2,-25702(gp)
 8003e8c:	1080005c 	xori	r2,r2,1
 8003e90:	10803fcc 	andi	r2,r2,255
 8003e94:	10800204 	addi	r2,r2,8
 8003e98:	18800e1e 	bne	r3,r2,8003ed4 <inCheck+0x9b4>
			return HASH(r, c, QUEEN);
 8003e9c:	e0bffc17 	ldw	r2,-16(fp)
 8003ea0:	10800804 	addi	r2,r2,32
 8003ea4:	100490fa 	slli	r2,r2,3
 8003ea8:	1007883a 	mov	r3,r2
 8003eac:	e0bffd17 	ldw	r2,-12(fp)
 8003eb0:	1885883a 	add	r2,r3,r2
 8003eb4:	10800044 	addi	r2,r2,1
 8003eb8:	00023c06 	br	80047ac <inCheck+0x128c>
		}
		else if ((player_turn == WHITE) && CHECK_SQUARE_ENEMY_IS_PIECE(r,c,player_turn, PAWN)) {
			return HASH(r, c, PAWN);
		}
	}
	while (r >= 0 && c < COLUMNS) {
 8003ebc:	e0bffc17 	ldw	r2,-16(fp)
 8003ec0:	10000516 	blt	r2,zero,8003ed8 <inCheck+0x9b8>
 8003ec4:	e0bffd17 	ldw	r2,-12(fp)
 8003ec8:	10800210 	cmplti	r2,r2,8
 8003ecc:	103fb01e 	bne	r2,zero,8003d90 <__alt_data_end+0xfc003d90>
 8003ed0:	00000106 	br	8003ed8 <inCheck+0x9b8>
			return HASH(r, c, BISHOP);
		}
		else if (CHECK_SQUARE_ENEMY_IS_PIECE(r,c,player_turn, QUEEN)) {
			return HASH(r, c, QUEEN);
		}
		else break;
 8003ed4:	0001883a 	nop
	}

	r = initRow + 1;
 8003ed8:	e0bffe03 	ldbu	r2,-8(fp)
 8003edc:	10800044 	addi	r2,r2,1
 8003ee0:	e0bffc15 	stw	r2,-16(fp)
	c = initCol + 1;
 8003ee4:	e0bfff03 	ldbu	r2,-4(fp)
 8003ee8:	10800044 	addi	r2,r2,1
 8003eec:	e0bffd15 	stw	r2,-12(fp)
	if (r < ROWS && c < COLUMNS) {
 8003ef0:	e0bffc17 	ldw	r2,-16(fp)
 8003ef4:	10800208 	cmpgei	r2,r2,8
 8003ef8:	10007b1e 	bne	r2,zero,80040e8 <inCheck+0xbc8>
 8003efc:	e0bffd17 	ldw	r2,-12(fp)
 8003f00:	10800208 	cmpgei	r2,r2,8
 8003f04:	1000781e 	bne	r2,zero,80040e8 <inCheck+0xbc8>
		if (CHECK_SQUARE_ENEMY_IS_PIECE(r,c,player_turn, KING)){
 8003f08:	d0e00017 	ldw	r3,-32768(gp)
 8003f0c:	e0bffc17 	ldw	r2,-16(fp)
 8003f10:	100890fa 	slli	r4,r2,3
 8003f14:	e0bffd17 	ldw	r2,-12(fp)
 8003f18:	2085883a 	add	r2,r4,r2
 8003f1c:	1885883a 	add	r2,r3,r2
 8003f20:	10800003 	ldbu	r2,0(r2)
 8003f24:	10803fcc 	andi	r2,r2,255
 8003f28:	10c003cc 	andi	r3,r2,15
 8003f2c:	d0a6e683 	ldbu	r2,-25702(gp)
 8003f30:	1080005c 	xori	r2,r2,1
 8003f34:	10803fcc 	andi	r2,r2,255
 8003f38:	10800284 	addi	r2,r2,10
 8003f3c:	1880081e 	bne	r3,r2,8003f60 <inCheck+0xa40>
			return HASH(r, c, KING);
 8003f40:	e0bffc17 	ldw	r2,-16(fp)
 8003f44:	10800a04 	addi	r2,r2,40
 8003f48:	100490fa 	slli	r2,r2,3
 8003f4c:	1007883a 	mov	r3,r2
 8003f50:	e0bffd17 	ldw	r2,-12(fp)
 8003f54:	1885883a 	add	r2,r3,r2
 8003f58:	10800044 	addi	r2,r2,1
 8003f5c:	00021306 	br	80047ac <inCheck+0x128c>
		}
		else if ((player_turn == BLACK) && CHECK_SQUARE_ENEMY_IS_PIECE(r,c,player_turn, PAWN)) {
 8003f60:	d0a6e683 	ldbu	r2,-25702(gp)
 8003f64:	10803fcc 	andi	r2,r2,255
 8003f68:	10005f1e 	bne	r2,zero,80040e8 <inCheck+0xbc8>
 8003f6c:	d0e00017 	ldw	r3,-32768(gp)
 8003f70:	e0bffc17 	ldw	r2,-16(fp)
 8003f74:	100890fa 	slli	r4,r2,3
 8003f78:	e0bffd17 	ldw	r2,-12(fp)
 8003f7c:	2085883a 	add	r2,r4,r2
 8003f80:	1885883a 	add	r2,r3,r2
 8003f84:	10800003 	ldbu	r2,0(r2)
 8003f88:	10803fcc 	andi	r2,r2,255
 8003f8c:	10c003cc 	andi	r3,r2,15
 8003f90:	d0a6e683 	ldbu	r2,-25702(gp)
 8003f94:	1080005c 	xori	r2,r2,1
 8003f98:	10803fcc 	andi	r2,r2,255
 8003f9c:	1880521e 	bne	r3,r2,80040e8 <inCheck+0xbc8>
			return HASH(r, c, PAWN);
 8003fa0:	e0bffc17 	ldw	r2,-16(fp)
 8003fa4:	100490fa 	slli	r2,r2,3
 8003fa8:	1007883a 	mov	r3,r2
 8003fac:	e0bffd17 	ldw	r2,-12(fp)
 8003fb0:	1885883a 	add	r2,r3,r2
 8003fb4:	10800044 	addi	r2,r2,1
 8003fb8:	0001fc06 	br	80047ac <inCheck+0x128c>
		}
	}
	while (r < ROWS && c < COLUMNS) {
		if (CHECK_SQUARE_EMPTY(r, c) || CHECK_SQUARE_FRIENDLY_IS_KING(r, c, player_turn)) {
 8003fbc:	d0e00017 	ldw	r3,-32768(gp)
 8003fc0:	e0bffc17 	ldw	r2,-16(fp)
 8003fc4:	100890fa 	slli	r4,r2,3
 8003fc8:	e0bffd17 	ldw	r2,-12(fp)
 8003fcc:	2085883a 	add	r2,r4,r2
 8003fd0:	1885883a 	add	r2,r3,r2
 8003fd4:	10800003 	ldbu	r2,0(r2)
 8003fd8:	10803fcc 	andi	r2,r2,255
 8003fdc:	108003cc 	andi	r2,r2,15
 8003fe0:	10800320 	cmpeqi	r2,r2,12
 8003fe4:	10000d1e 	bne	r2,zero,800401c <inCheck+0xafc>
 8003fe8:	d0e00017 	ldw	r3,-32768(gp)
 8003fec:	e0bffc17 	ldw	r2,-16(fp)
 8003ff0:	100890fa 	slli	r4,r2,3
 8003ff4:	e0bffd17 	ldw	r2,-12(fp)
 8003ff8:	2085883a 	add	r2,r4,r2
 8003ffc:	1885883a 	add	r2,r3,r2
 8004000:	10800003 	ldbu	r2,0(r2)
 8004004:	10803fcc 	andi	r2,r2,255
 8004008:	10c003cc 	andi	r3,r2,15
 800400c:	d0a6e683 	ldbu	r2,-25702(gp)
 8004010:	10803fcc 	andi	r2,r2,255
 8004014:	10800284 	addi	r2,r2,10
 8004018:	1880071e 	bne	r3,r2,8004038 <inCheck+0xb18>
			r++;
 800401c:	e0bffc17 	ldw	r2,-16(fp)
 8004020:	10800044 	addi	r2,r2,1
 8004024:	e0bffc15 	stw	r2,-16(fp)
			c++;
 8004028:	e0bffd17 	ldw	r2,-12(fp)
 800402c:	10800044 	addi	r2,r2,1
 8004030:	e0bffd15 	stw	r2,-12(fp)
 8004034:	00002c06 	br	80040e8 <inCheck+0xbc8>
		}
		else if (CHECK_SQUARE_ENEMY_IS_PIECE(r,c,player_turn, BISHOP)) {
 8004038:	d0e00017 	ldw	r3,-32768(gp)
 800403c:	e0bffc17 	ldw	r2,-16(fp)
 8004040:	100890fa 	slli	r4,r2,3
 8004044:	e0bffd17 	ldw	r2,-12(fp)
 8004048:	2085883a 	add	r2,r4,r2
 800404c:	1885883a 	add	r2,r3,r2
 8004050:	10800003 	ldbu	r2,0(r2)
 8004054:	10803fcc 	andi	r2,r2,255
 8004058:	10c003cc 	andi	r3,r2,15
 800405c:	d0a6e683 	ldbu	r2,-25702(gp)
 8004060:	1080005c 	xori	r2,r2,1
 8004064:	10803fcc 	andi	r2,r2,255
 8004068:	10800084 	addi	r2,r2,2
 800406c:	1880081e 	bne	r3,r2,8004090 <inCheck+0xb70>
			return HASH(r, c, BISHOP);
 8004070:	e0bffc17 	ldw	r2,-16(fp)
 8004074:	10800204 	addi	r2,r2,8
 8004078:	100490fa 	slli	r2,r2,3
 800407c:	1007883a 	mov	r3,r2
 8004080:	e0bffd17 	ldw	r2,-12(fp)
 8004084:	1885883a 	add	r2,r3,r2
 8004088:	10800044 	addi	r2,r2,1
 800408c:	0001c706 	br	80047ac <inCheck+0x128c>
		}
		else if (CHECK_SQUARE_ENEMY_IS_PIECE(r,c,player_turn, QUEEN)) {
 8004090:	d0e00017 	ldw	r3,-32768(gp)
 8004094:	e0bffc17 	ldw	r2,-16(fp)
 8004098:	100890fa 	slli	r4,r2,3
 800409c:	e0bffd17 	ldw	r2,-12(fp)
 80040a0:	2085883a 	add	r2,r4,r2
 80040a4:	1885883a 	add	r2,r3,r2
 80040a8:	10800003 	ldbu	r2,0(r2)
 80040ac:	10803fcc 	andi	r2,r2,255
 80040b0:	10c003cc 	andi	r3,r2,15
 80040b4:	d0a6e683 	ldbu	r2,-25702(gp)
 80040b8:	1080005c 	xori	r2,r2,1
 80040bc:	10803fcc 	andi	r2,r2,255
 80040c0:	10800204 	addi	r2,r2,8
 80040c4:	18800f1e 	bne	r3,r2,8004104 <inCheck+0xbe4>
			return HASH(r, c, QUEEN);
 80040c8:	e0bffc17 	ldw	r2,-16(fp)
 80040cc:	10800804 	addi	r2,r2,32
 80040d0:	100490fa 	slli	r2,r2,3
 80040d4:	1007883a 	mov	r3,r2
 80040d8:	e0bffd17 	ldw	r2,-12(fp)
 80040dc:	1885883a 	add	r2,r3,r2
 80040e0:	10800044 	addi	r2,r2,1
 80040e4:	0001b106 	br	80047ac <inCheck+0x128c>
		}
		else if ((player_turn == BLACK) && CHECK_SQUARE_ENEMY_IS_PIECE(r,c,player_turn, PAWN)) {
			return HASH(r, c, PAWN);
		}
	}
	while (r < ROWS && c < COLUMNS) {
 80040e8:	e0bffc17 	ldw	r2,-16(fp)
 80040ec:	10800208 	cmpgei	r2,r2,8
 80040f0:	1000051e 	bne	r2,zero,8004108 <inCheck+0xbe8>
 80040f4:	e0bffd17 	ldw	r2,-12(fp)
 80040f8:	10800210 	cmplti	r2,r2,8
 80040fc:	103faf1e 	bne	r2,zero,8003fbc <__alt_data_end+0xfc003fbc>
 8004100:	00000106 	br	8004108 <inCheck+0xbe8>
			return HASH(r, c, BISHOP);
		}
		else if (CHECK_SQUARE_ENEMY_IS_PIECE(r,c,player_turn, QUEEN)) {
			return HASH(r, c, QUEEN);
		}
		else break;
 8004104:	0001883a 	nop
	}

	// Rank move logic
	
	r = initRow - 1;
 8004108:	e0bffe03 	ldbu	r2,-8(fp)
 800410c:	10bfffc4 	addi	r2,r2,-1
 8004110:	e0bffc15 	stw	r2,-16(fp)
	c = initCol;
 8004114:	e0bfff03 	ldbu	r2,-4(fp)
 8004118:	e0bffd15 	stw	r2,-12(fp)
	if (r >= 0 && CHECK_SQUARE_ENEMY_IS_PIECE(r,c,player_turn, KING)) {
 800411c:	e0bffc17 	ldw	r2,-16(fp)
 8004120:	10005e16 	blt	r2,zero,800429c <inCheck+0xd7c>
 8004124:	d0e00017 	ldw	r3,-32768(gp)
 8004128:	e0bffc17 	ldw	r2,-16(fp)
 800412c:	100890fa 	slli	r4,r2,3
 8004130:	e0bffd17 	ldw	r2,-12(fp)
 8004134:	2085883a 	add	r2,r4,r2
 8004138:	1885883a 	add	r2,r3,r2
 800413c:	10800003 	ldbu	r2,0(r2)
 8004140:	10803fcc 	andi	r2,r2,255
 8004144:	10c003cc 	andi	r3,r2,15
 8004148:	d0a6e683 	ldbu	r2,-25702(gp)
 800414c:	1080005c 	xori	r2,r2,1
 8004150:	10803fcc 	andi	r2,r2,255
 8004154:	10800284 	addi	r2,r2,10
 8004158:	1880501e 	bne	r3,r2,800429c <inCheck+0xd7c>
		return HASH(r, c, KING);
 800415c:	e0bffc17 	ldw	r2,-16(fp)
 8004160:	10800a04 	addi	r2,r2,40
 8004164:	100490fa 	slli	r2,r2,3
 8004168:	1007883a 	mov	r3,r2
 800416c:	e0bffd17 	ldw	r2,-12(fp)
 8004170:	1885883a 	add	r2,r3,r2
 8004174:	10800044 	addi	r2,r2,1
 8004178:	00018c06 	br	80047ac <inCheck+0x128c>
	}
	while (r >= 0) {
		if (CHECK_SQUARE_EMPTY(r, c) || CHECK_SQUARE_FRIENDLY_IS_KING(r, c, player_turn)) {
 800417c:	d0e00017 	ldw	r3,-32768(gp)
 8004180:	e0bffc17 	ldw	r2,-16(fp)
 8004184:	100890fa 	slli	r4,r2,3
 8004188:	e0bffd17 	ldw	r2,-12(fp)
 800418c:	2085883a 	add	r2,r4,r2
 8004190:	1885883a 	add	r2,r3,r2
 8004194:	10800003 	ldbu	r2,0(r2)
 8004198:	10803fcc 	andi	r2,r2,255
 800419c:	108003cc 	andi	r2,r2,15
 80041a0:	10800320 	cmpeqi	r2,r2,12
 80041a4:	10000d1e 	bne	r2,zero,80041dc <inCheck+0xcbc>
 80041a8:	d0e00017 	ldw	r3,-32768(gp)
 80041ac:	e0bffc17 	ldw	r2,-16(fp)
 80041b0:	100890fa 	slli	r4,r2,3
 80041b4:	e0bffd17 	ldw	r2,-12(fp)
 80041b8:	2085883a 	add	r2,r4,r2
 80041bc:	1885883a 	add	r2,r3,r2
 80041c0:	10800003 	ldbu	r2,0(r2)
 80041c4:	10803fcc 	andi	r2,r2,255
 80041c8:	10c003cc 	andi	r3,r2,15
 80041cc:	d0a6e683 	ldbu	r2,-25702(gp)
 80041d0:	10803fcc 	andi	r2,r2,255
 80041d4:	10800284 	addi	r2,r2,10
 80041d8:	1880041e 	bne	r3,r2,80041ec <inCheck+0xccc>
			r--;
 80041dc:	e0bffc17 	ldw	r2,-16(fp)
 80041e0:	10bfffc4 	addi	r2,r2,-1
 80041e4:	e0bffc15 	stw	r2,-16(fp)
 80041e8:	00002c06 	br	800429c <inCheck+0xd7c>
		}
		else if (CHECK_SQUARE_ENEMY_IS_PIECE(r ,c , player_turn, ROOK)) {
 80041ec:	d0e00017 	ldw	r3,-32768(gp)
 80041f0:	e0bffc17 	ldw	r2,-16(fp)
 80041f4:	100890fa 	slli	r4,r2,3
 80041f8:	e0bffd17 	ldw	r2,-12(fp)
 80041fc:	2085883a 	add	r2,r4,r2
 8004200:	1885883a 	add	r2,r3,r2
 8004204:	10800003 	ldbu	r2,0(r2)
 8004208:	10803fcc 	andi	r2,r2,255
 800420c:	10c003cc 	andi	r3,r2,15
 8004210:	d0a6e683 	ldbu	r2,-25702(gp)
 8004214:	1080005c 	xori	r2,r2,1
 8004218:	10803fcc 	andi	r2,r2,255
 800421c:	10800184 	addi	r2,r2,6
 8004220:	1880081e 	bne	r3,r2,8004244 <inCheck+0xd24>
			return HASH(r, c, ROOK);
 8004224:	e0bffc17 	ldw	r2,-16(fp)
 8004228:	10800604 	addi	r2,r2,24
 800422c:	100490fa 	slli	r2,r2,3
 8004230:	1007883a 	mov	r3,r2
 8004234:	e0bffd17 	ldw	r2,-12(fp)
 8004238:	1885883a 	add	r2,r3,r2
 800423c:	10800044 	addi	r2,r2,1
 8004240:	00015a06 	br	80047ac <inCheck+0x128c>
		}
		else if (CHECK_SQUARE_ENEMY_IS_PIECE(r ,c , player_turn, QUEEN)) {
 8004244:	d0e00017 	ldw	r3,-32768(gp)
 8004248:	e0bffc17 	ldw	r2,-16(fp)
 800424c:	100890fa 	slli	r4,r2,3
 8004250:	e0bffd17 	ldw	r2,-12(fp)
 8004254:	2085883a 	add	r2,r4,r2
 8004258:	1885883a 	add	r2,r3,r2
 800425c:	10800003 	ldbu	r2,0(r2)
 8004260:	10803fcc 	andi	r2,r2,255
 8004264:	10c003cc 	andi	r3,r2,15
 8004268:	d0a6e683 	ldbu	r2,-25702(gp)
 800426c:	1080005c 	xori	r2,r2,1
 8004270:	10803fcc 	andi	r2,r2,255
 8004274:	10800204 	addi	r2,r2,8
 8004278:	18800b1e 	bne	r3,r2,80042a8 <inCheck+0xd88>
			return HASH(r, c, QUEEN);
 800427c:	e0bffc17 	ldw	r2,-16(fp)
 8004280:	10800804 	addi	r2,r2,32
 8004284:	100490fa 	slli	r2,r2,3
 8004288:	1007883a 	mov	r3,r2
 800428c:	e0bffd17 	ldw	r2,-12(fp)
 8004290:	1885883a 	add	r2,r3,r2
 8004294:	10800044 	addi	r2,r2,1
 8004298:	00014406 	br	80047ac <inCheck+0x128c>
	r = initRow - 1;
	c = initCol;
	if (r >= 0 && CHECK_SQUARE_ENEMY_IS_PIECE(r,c,player_turn, KING)) {
		return HASH(r, c, KING);
	}
	while (r >= 0) {
 800429c:	e0bffc17 	ldw	r2,-16(fp)
 80042a0:	103fb60e 	bge	r2,zero,800417c <__alt_data_end+0xfc00417c>
 80042a4:	00000106 	br	80042ac <inCheck+0xd8c>
			return HASH(r, c, ROOK);
		}
		else if (CHECK_SQUARE_ENEMY_IS_PIECE(r ,c , player_turn, QUEEN)) {
			return HASH(r, c, QUEEN);
		}
		else break;
 80042a8:	0001883a 	nop
	}

	r = initRow + 1;
 80042ac:	e0bffe03 	ldbu	r2,-8(fp)
 80042b0:	10800044 	addi	r2,r2,1
 80042b4:	e0bffc15 	stw	r2,-16(fp)
	c = initCol;
 80042b8:	e0bfff03 	ldbu	r2,-4(fp)
 80042bc:	e0bffd15 	stw	r2,-12(fp)
	if (r < ROWS && CHECK_SQUARE_ENEMY_IS_PIECE(r,c,player_turn, KING)) {
 80042c0:	e0bffc17 	ldw	r2,-16(fp)
 80042c4:	10800208 	cmpgei	r2,r2,8
 80042c8:	10005e1e 	bne	r2,zero,8004444 <inCheck+0xf24>
 80042cc:	d0e00017 	ldw	r3,-32768(gp)
 80042d0:	e0bffc17 	ldw	r2,-16(fp)
 80042d4:	100890fa 	slli	r4,r2,3
 80042d8:	e0bffd17 	ldw	r2,-12(fp)
 80042dc:	2085883a 	add	r2,r4,r2
 80042e0:	1885883a 	add	r2,r3,r2
 80042e4:	10800003 	ldbu	r2,0(r2)
 80042e8:	10803fcc 	andi	r2,r2,255
 80042ec:	10c003cc 	andi	r3,r2,15
 80042f0:	d0a6e683 	ldbu	r2,-25702(gp)
 80042f4:	1080005c 	xori	r2,r2,1
 80042f8:	10803fcc 	andi	r2,r2,255
 80042fc:	10800284 	addi	r2,r2,10
 8004300:	1880501e 	bne	r3,r2,8004444 <inCheck+0xf24>
		return HASH(r, c, KING);
 8004304:	e0bffc17 	ldw	r2,-16(fp)
 8004308:	10800a04 	addi	r2,r2,40
 800430c:	100490fa 	slli	r2,r2,3
 8004310:	1007883a 	mov	r3,r2
 8004314:	e0bffd17 	ldw	r2,-12(fp)
 8004318:	1885883a 	add	r2,r3,r2
 800431c:	10800044 	addi	r2,r2,1
 8004320:	00012206 	br	80047ac <inCheck+0x128c>
	}
	while (r < ROWS) {
		if (CHECK_SQUARE_EMPTY(r, c) || CHECK_SQUARE_FRIENDLY_IS_KING(r, c, player_turn)) {
 8004324:	d0e00017 	ldw	r3,-32768(gp)
 8004328:	e0bffc17 	ldw	r2,-16(fp)
 800432c:	100890fa 	slli	r4,r2,3
 8004330:	e0bffd17 	ldw	r2,-12(fp)
 8004334:	2085883a 	add	r2,r4,r2
 8004338:	1885883a 	add	r2,r3,r2
 800433c:	10800003 	ldbu	r2,0(r2)
 8004340:	10803fcc 	andi	r2,r2,255
 8004344:	108003cc 	andi	r2,r2,15
 8004348:	10800320 	cmpeqi	r2,r2,12
 800434c:	10000d1e 	bne	r2,zero,8004384 <inCheck+0xe64>
 8004350:	d0e00017 	ldw	r3,-32768(gp)
 8004354:	e0bffc17 	ldw	r2,-16(fp)
 8004358:	100890fa 	slli	r4,r2,3
 800435c:	e0bffd17 	ldw	r2,-12(fp)
 8004360:	2085883a 	add	r2,r4,r2
 8004364:	1885883a 	add	r2,r3,r2
 8004368:	10800003 	ldbu	r2,0(r2)
 800436c:	10803fcc 	andi	r2,r2,255
 8004370:	10c003cc 	andi	r3,r2,15
 8004374:	d0a6e683 	ldbu	r2,-25702(gp)
 8004378:	10803fcc 	andi	r2,r2,255
 800437c:	10800284 	addi	r2,r2,10
 8004380:	1880041e 	bne	r3,r2,8004394 <inCheck+0xe74>
			r++;
 8004384:	e0bffc17 	ldw	r2,-16(fp)
 8004388:	10800044 	addi	r2,r2,1
 800438c:	e0bffc15 	stw	r2,-16(fp)
 8004390:	00002c06 	br	8004444 <inCheck+0xf24>
		}
		else if (CHECK_SQUARE_ENEMY_IS_PIECE(r ,c , player_turn, ROOK)) {
 8004394:	d0e00017 	ldw	r3,-32768(gp)
 8004398:	e0bffc17 	ldw	r2,-16(fp)
 800439c:	100890fa 	slli	r4,r2,3
 80043a0:	e0bffd17 	ldw	r2,-12(fp)
 80043a4:	2085883a 	add	r2,r4,r2
 80043a8:	1885883a 	add	r2,r3,r2
 80043ac:	10800003 	ldbu	r2,0(r2)
 80043b0:	10803fcc 	andi	r2,r2,255
 80043b4:	10c003cc 	andi	r3,r2,15
 80043b8:	d0a6e683 	ldbu	r2,-25702(gp)
 80043bc:	1080005c 	xori	r2,r2,1
 80043c0:	10803fcc 	andi	r2,r2,255
 80043c4:	10800184 	addi	r2,r2,6
 80043c8:	1880081e 	bne	r3,r2,80043ec <inCheck+0xecc>
			return HASH(r, c, ROOK);
 80043cc:	e0bffc17 	ldw	r2,-16(fp)
 80043d0:	10800604 	addi	r2,r2,24
 80043d4:	100490fa 	slli	r2,r2,3
 80043d8:	1007883a 	mov	r3,r2
 80043dc:	e0bffd17 	ldw	r2,-12(fp)
 80043e0:	1885883a 	add	r2,r3,r2
 80043e4:	10800044 	addi	r2,r2,1
 80043e8:	0000f006 	br	80047ac <inCheck+0x128c>
		}
		else if (CHECK_SQUARE_ENEMY_IS_PIECE(r ,c , player_turn, QUEEN)) {
 80043ec:	d0e00017 	ldw	r3,-32768(gp)
 80043f0:	e0bffc17 	ldw	r2,-16(fp)
 80043f4:	100890fa 	slli	r4,r2,3
 80043f8:	e0bffd17 	ldw	r2,-12(fp)
 80043fc:	2085883a 	add	r2,r4,r2
 8004400:	1885883a 	add	r2,r3,r2
 8004404:	10800003 	ldbu	r2,0(r2)
 8004408:	10803fcc 	andi	r2,r2,255
 800440c:	10c003cc 	andi	r3,r2,15
 8004410:	d0a6e683 	ldbu	r2,-25702(gp)
 8004414:	1080005c 	xori	r2,r2,1
 8004418:	10803fcc 	andi	r2,r2,255
 800441c:	10800204 	addi	r2,r2,8
 8004420:	18800c1e 	bne	r3,r2,8004454 <inCheck+0xf34>
			return HASH(r, c, QUEEN);
 8004424:	e0bffc17 	ldw	r2,-16(fp)
 8004428:	10800804 	addi	r2,r2,32
 800442c:	100490fa 	slli	r2,r2,3
 8004430:	1007883a 	mov	r3,r2
 8004434:	e0bffd17 	ldw	r2,-12(fp)
 8004438:	1885883a 	add	r2,r3,r2
 800443c:	10800044 	addi	r2,r2,1
 8004440:	0000da06 	br	80047ac <inCheck+0x128c>
	r = initRow + 1;
	c = initCol;
	if (r < ROWS && CHECK_SQUARE_ENEMY_IS_PIECE(r,c,player_turn, KING)) {
		return HASH(r, c, KING);
	}
	while (r < ROWS) {
 8004444:	e0bffc17 	ldw	r2,-16(fp)
 8004448:	10800210 	cmplti	r2,r2,8
 800444c:	103fb51e 	bne	r2,zero,8004324 <__alt_data_end+0xfc004324>
 8004450:	00000106 	br	8004458 <inCheck+0xf38>
			return HASH(r, c, ROOK);
		}
		else if (CHECK_SQUARE_ENEMY_IS_PIECE(r ,c , player_turn, QUEEN)) {
			return HASH(r, c, QUEEN);
		}
		else break;
 8004454:	0001883a 	nop
	}

	r = initRow;
 8004458:	e0bffe03 	ldbu	r2,-8(fp)
 800445c:	e0bffc15 	stw	r2,-16(fp)
	c = initCol - 1;
 8004460:	e0bfff03 	ldbu	r2,-4(fp)
 8004464:	10bfffc4 	addi	r2,r2,-1
 8004468:	e0bffd15 	stw	r2,-12(fp)
	if (c >= 0 && CHECK_SQUARE_ENEMY_IS_PIECE(r,c,player_turn, KING)) {
 800446c:	e0bffd17 	ldw	r2,-12(fp)
 8004470:	10005e16 	blt	r2,zero,80045ec <inCheck+0x10cc>
 8004474:	d0e00017 	ldw	r3,-32768(gp)
 8004478:	e0bffc17 	ldw	r2,-16(fp)
 800447c:	100890fa 	slli	r4,r2,3
 8004480:	e0bffd17 	ldw	r2,-12(fp)
 8004484:	2085883a 	add	r2,r4,r2
 8004488:	1885883a 	add	r2,r3,r2
 800448c:	10800003 	ldbu	r2,0(r2)
 8004490:	10803fcc 	andi	r2,r2,255
 8004494:	10c003cc 	andi	r3,r2,15
 8004498:	d0a6e683 	ldbu	r2,-25702(gp)
 800449c:	1080005c 	xori	r2,r2,1
 80044a0:	10803fcc 	andi	r2,r2,255
 80044a4:	10800284 	addi	r2,r2,10
 80044a8:	1880501e 	bne	r3,r2,80045ec <inCheck+0x10cc>
		return HASH(r, c, KING);
 80044ac:	e0bffc17 	ldw	r2,-16(fp)
 80044b0:	10800a04 	addi	r2,r2,40
 80044b4:	100490fa 	slli	r2,r2,3
 80044b8:	1007883a 	mov	r3,r2
 80044bc:	e0bffd17 	ldw	r2,-12(fp)
 80044c0:	1885883a 	add	r2,r3,r2
 80044c4:	10800044 	addi	r2,r2,1
 80044c8:	0000b806 	br	80047ac <inCheck+0x128c>
	}
	while (c >= 0) {
		if (CHECK_SQUARE_EMPTY(r, c) || CHECK_SQUARE_FRIENDLY_IS_KING(r, c, player_turn)) {
 80044cc:	d0e00017 	ldw	r3,-32768(gp)
 80044d0:	e0bffc17 	ldw	r2,-16(fp)
 80044d4:	100890fa 	slli	r4,r2,3
 80044d8:	e0bffd17 	ldw	r2,-12(fp)
 80044dc:	2085883a 	add	r2,r4,r2
 80044e0:	1885883a 	add	r2,r3,r2
 80044e4:	10800003 	ldbu	r2,0(r2)
 80044e8:	10803fcc 	andi	r2,r2,255
 80044ec:	108003cc 	andi	r2,r2,15
 80044f0:	10800320 	cmpeqi	r2,r2,12
 80044f4:	10000d1e 	bne	r2,zero,800452c <inCheck+0x100c>
 80044f8:	d0e00017 	ldw	r3,-32768(gp)
 80044fc:	e0bffc17 	ldw	r2,-16(fp)
 8004500:	100890fa 	slli	r4,r2,3
 8004504:	e0bffd17 	ldw	r2,-12(fp)
 8004508:	2085883a 	add	r2,r4,r2
 800450c:	1885883a 	add	r2,r3,r2
 8004510:	10800003 	ldbu	r2,0(r2)
 8004514:	10803fcc 	andi	r2,r2,255
 8004518:	10c003cc 	andi	r3,r2,15
 800451c:	d0a6e683 	ldbu	r2,-25702(gp)
 8004520:	10803fcc 	andi	r2,r2,255
 8004524:	10800284 	addi	r2,r2,10
 8004528:	1880041e 	bne	r3,r2,800453c <inCheck+0x101c>
			c--;
 800452c:	e0bffd17 	ldw	r2,-12(fp)
 8004530:	10bfffc4 	addi	r2,r2,-1
 8004534:	e0bffd15 	stw	r2,-12(fp)
 8004538:	00002c06 	br	80045ec <inCheck+0x10cc>
		}
		else if (CHECK_SQUARE_ENEMY_IS_PIECE(r ,c , player_turn, ROOK)) {
 800453c:	d0e00017 	ldw	r3,-32768(gp)
 8004540:	e0bffc17 	ldw	r2,-16(fp)
 8004544:	100890fa 	slli	r4,r2,3
 8004548:	e0bffd17 	ldw	r2,-12(fp)
 800454c:	2085883a 	add	r2,r4,r2
 8004550:	1885883a 	add	r2,r3,r2
 8004554:	10800003 	ldbu	r2,0(r2)
 8004558:	10803fcc 	andi	r2,r2,255
 800455c:	10c003cc 	andi	r3,r2,15
 8004560:	d0a6e683 	ldbu	r2,-25702(gp)
 8004564:	1080005c 	xori	r2,r2,1
 8004568:	10803fcc 	andi	r2,r2,255
 800456c:	10800184 	addi	r2,r2,6
 8004570:	1880081e 	bne	r3,r2,8004594 <inCheck+0x1074>
			return HASH(r, c, ROOK);
 8004574:	e0bffc17 	ldw	r2,-16(fp)
 8004578:	10800604 	addi	r2,r2,24
 800457c:	100490fa 	slli	r2,r2,3
 8004580:	1007883a 	mov	r3,r2
 8004584:	e0bffd17 	ldw	r2,-12(fp)
 8004588:	1885883a 	add	r2,r3,r2
 800458c:	10800044 	addi	r2,r2,1
 8004590:	00008606 	br	80047ac <inCheck+0x128c>
		}
		else if (CHECK_SQUARE_ENEMY_IS_PIECE(r ,c , player_turn, QUEEN)) {
 8004594:	d0e00017 	ldw	r3,-32768(gp)
 8004598:	e0bffc17 	ldw	r2,-16(fp)
 800459c:	100890fa 	slli	r4,r2,3
 80045a0:	e0bffd17 	ldw	r2,-12(fp)
 80045a4:	2085883a 	add	r2,r4,r2
 80045a8:	1885883a 	add	r2,r3,r2
 80045ac:	10800003 	ldbu	r2,0(r2)
 80045b0:	10803fcc 	andi	r2,r2,255
 80045b4:	10c003cc 	andi	r3,r2,15
 80045b8:	d0a6e683 	ldbu	r2,-25702(gp)
 80045bc:	1080005c 	xori	r2,r2,1
 80045c0:	10803fcc 	andi	r2,r2,255
 80045c4:	10800204 	addi	r2,r2,8
 80045c8:	18800b1e 	bne	r3,r2,80045f8 <inCheck+0x10d8>
			return HASH(r, c, QUEEN);
 80045cc:	e0bffc17 	ldw	r2,-16(fp)
 80045d0:	10800804 	addi	r2,r2,32
 80045d4:	100490fa 	slli	r2,r2,3
 80045d8:	1007883a 	mov	r3,r2
 80045dc:	e0bffd17 	ldw	r2,-12(fp)
 80045e0:	1885883a 	add	r2,r3,r2
 80045e4:	10800044 	addi	r2,r2,1
 80045e8:	00007006 	br	80047ac <inCheck+0x128c>
	r = initRow;
	c = initCol - 1;
	if (c >= 0 && CHECK_SQUARE_ENEMY_IS_PIECE(r,c,player_turn, KING)) {
		return HASH(r, c, KING);
	}
	while (c >= 0) {
 80045ec:	e0bffd17 	ldw	r2,-12(fp)
 80045f0:	103fb60e 	bge	r2,zero,80044cc <__alt_data_end+0xfc0044cc>
 80045f4:	00000106 	br	80045fc <inCheck+0x10dc>
			return HASH(r, c, ROOK);
		}
		else if (CHECK_SQUARE_ENEMY_IS_PIECE(r ,c , player_turn, QUEEN)) {
			return HASH(r, c, QUEEN);
		}
		else break;
 80045f8:	0001883a 	nop
	}

	r = initRow;
 80045fc:	e0bffe03 	ldbu	r2,-8(fp)
 8004600:	e0bffc15 	stw	r2,-16(fp)
	c = initCol + 1;
 8004604:	e0bfff03 	ldbu	r2,-4(fp)
 8004608:	10800044 	addi	r2,r2,1
 800460c:	e0bffd15 	stw	r2,-12(fp)
	if (c < COLUMNS && CHECK_SQUARE_ENEMY_IS_PIECE(r,c,player_turn, KING)) {
 8004610:	e0bffd17 	ldw	r2,-12(fp)
 8004614:	10800208 	cmpgei	r2,r2,8
 8004618:	10005e1e 	bne	r2,zero,8004794 <inCheck+0x1274>
 800461c:	d0e00017 	ldw	r3,-32768(gp)
 8004620:	e0bffc17 	ldw	r2,-16(fp)
 8004624:	100890fa 	slli	r4,r2,3
 8004628:	e0bffd17 	ldw	r2,-12(fp)
 800462c:	2085883a 	add	r2,r4,r2
 8004630:	1885883a 	add	r2,r3,r2
 8004634:	10800003 	ldbu	r2,0(r2)
 8004638:	10803fcc 	andi	r2,r2,255
 800463c:	10c003cc 	andi	r3,r2,15
 8004640:	d0a6e683 	ldbu	r2,-25702(gp)
 8004644:	1080005c 	xori	r2,r2,1
 8004648:	10803fcc 	andi	r2,r2,255
 800464c:	10800284 	addi	r2,r2,10
 8004650:	1880501e 	bne	r3,r2,8004794 <inCheck+0x1274>
		return HASH(r, c, KING);
 8004654:	e0bffc17 	ldw	r2,-16(fp)
 8004658:	10800a04 	addi	r2,r2,40
 800465c:	100490fa 	slli	r2,r2,3
 8004660:	1007883a 	mov	r3,r2
 8004664:	e0bffd17 	ldw	r2,-12(fp)
 8004668:	1885883a 	add	r2,r3,r2
 800466c:	10800044 	addi	r2,r2,1
 8004670:	00004e06 	br	80047ac <inCheck+0x128c>
	}
	while (c < COLUMNS) {
		if (CHECK_SQUARE_EMPTY(r, c) || CHECK_SQUARE_FRIENDLY_IS_KING(r, c, player_turn)) {
 8004674:	d0e00017 	ldw	r3,-32768(gp)
 8004678:	e0bffc17 	ldw	r2,-16(fp)
 800467c:	100890fa 	slli	r4,r2,3
 8004680:	e0bffd17 	ldw	r2,-12(fp)
 8004684:	2085883a 	add	r2,r4,r2
 8004688:	1885883a 	add	r2,r3,r2
 800468c:	10800003 	ldbu	r2,0(r2)
 8004690:	10803fcc 	andi	r2,r2,255
 8004694:	108003cc 	andi	r2,r2,15
 8004698:	10800320 	cmpeqi	r2,r2,12
 800469c:	10000d1e 	bne	r2,zero,80046d4 <inCheck+0x11b4>
 80046a0:	d0e00017 	ldw	r3,-32768(gp)
 80046a4:	e0bffc17 	ldw	r2,-16(fp)
 80046a8:	100890fa 	slli	r4,r2,3
 80046ac:	e0bffd17 	ldw	r2,-12(fp)
 80046b0:	2085883a 	add	r2,r4,r2
 80046b4:	1885883a 	add	r2,r3,r2
 80046b8:	10800003 	ldbu	r2,0(r2)
 80046bc:	10803fcc 	andi	r2,r2,255
 80046c0:	10c003cc 	andi	r3,r2,15
 80046c4:	d0a6e683 	ldbu	r2,-25702(gp)
 80046c8:	10803fcc 	andi	r2,r2,255
 80046cc:	10800284 	addi	r2,r2,10
 80046d0:	1880041e 	bne	r3,r2,80046e4 <inCheck+0x11c4>
			c++;
 80046d4:	e0bffd17 	ldw	r2,-12(fp)
 80046d8:	10800044 	addi	r2,r2,1
 80046dc:	e0bffd15 	stw	r2,-12(fp)
 80046e0:	00002c06 	br	8004794 <inCheck+0x1274>
		}
		else if (CHECK_SQUARE_ENEMY_IS_PIECE(r ,c , player_turn, ROOK)) {
 80046e4:	d0e00017 	ldw	r3,-32768(gp)
 80046e8:	e0bffc17 	ldw	r2,-16(fp)
 80046ec:	100890fa 	slli	r4,r2,3
 80046f0:	e0bffd17 	ldw	r2,-12(fp)
 80046f4:	2085883a 	add	r2,r4,r2
 80046f8:	1885883a 	add	r2,r3,r2
 80046fc:	10800003 	ldbu	r2,0(r2)
 8004700:	10803fcc 	andi	r2,r2,255
 8004704:	10c003cc 	andi	r3,r2,15
 8004708:	d0a6e683 	ldbu	r2,-25702(gp)
 800470c:	1080005c 	xori	r2,r2,1
 8004710:	10803fcc 	andi	r2,r2,255
 8004714:	10800184 	addi	r2,r2,6
 8004718:	1880081e 	bne	r3,r2,800473c <inCheck+0x121c>
			return HASH(r, c, ROOK);
 800471c:	e0bffc17 	ldw	r2,-16(fp)
 8004720:	10800604 	addi	r2,r2,24
 8004724:	100490fa 	slli	r2,r2,3
 8004728:	1007883a 	mov	r3,r2
 800472c:	e0bffd17 	ldw	r2,-12(fp)
 8004730:	1885883a 	add	r2,r3,r2
 8004734:	10800044 	addi	r2,r2,1
 8004738:	00001c06 	br	80047ac <inCheck+0x128c>
		}
		else if (CHECK_SQUARE_ENEMY_IS_PIECE(r ,c , player_turn, QUEEN)) {
 800473c:	d0e00017 	ldw	r3,-32768(gp)
 8004740:	e0bffc17 	ldw	r2,-16(fp)
 8004744:	100890fa 	slli	r4,r2,3
 8004748:	e0bffd17 	ldw	r2,-12(fp)
 800474c:	2085883a 	add	r2,r4,r2
 8004750:	1885883a 	add	r2,r3,r2
 8004754:	10800003 	ldbu	r2,0(r2)
 8004758:	10803fcc 	andi	r2,r2,255
 800475c:	10c003cc 	andi	r3,r2,15
 8004760:	d0a6e683 	ldbu	r2,-25702(gp)
 8004764:	1080005c 	xori	r2,r2,1
 8004768:	10803fcc 	andi	r2,r2,255
 800476c:	10800204 	addi	r2,r2,8
 8004770:	18800c1e 	bne	r3,r2,80047a4 <inCheck+0x1284>
			return HASH(r, c, QUEEN);
 8004774:	e0bffc17 	ldw	r2,-16(fp)
 8004778:	10800804 	addi	r2,r2,32
 800477c:	100490fa 	slli	r2,r2,3
 8004780:	1007883a 	mov	r3,r2
 8004784:	e0bffd17 	ldw	r2,-12(fp)
 8004788:	1885883a 	add	r2,r3,r2
 800478c:	10800044 	addi	r2,r2,1
 8004790:	00000606 	br	80047ac <inCheck+0x128c>
	r = initRow;
	c = initCol + 1;
	if (c < COLUMNS && CHECK_SQUARE_ENEMY_IS_PIECE(r,c,player_turn, KING)) {
		return HASH(r, c, KING);
	}
	while (c < COLUMNS) {
 8004794:	e0bffd17 	ldw	r2,-12(fp)
 8004798:	10800210 	cmplti	r2,r2,8
 800479c:	103fb51e 	bne	r2,zero,8004674 <__alt_data_end+0xfc004674>
 80047a0:	00000106 	br	80047a8 <inCheck+0x1288>
			return HASH(r, c, ROOK);
		}
		else if (CHECK_SQUARE_ENEMY_IS_PIECE(r ,c , player_turn, QUEEN)) {
			return HASH(r, c, QUEEN);
		}
		else break;
 80047a4:	0001883a 	nop
	}

	// Not in Check
	return 0;
 80047a8:	0005883a 	mov	r2,zero
}
 80047ac:	e037883a 	mov	sp,fp
 80047b0:	df000017 	ldw	fp,0(sp)
 80047b4:	dec00104 	addi	sp,sp,4
 80047b8:	f800283a 	ret

080047bc <checkMate>:
	0 for nothing
	1 for checkmate
	this function assumes that in_check is established to be true
*/
alt_u8 checkMate(alt_u16 in_check_hash)
{
 80047bc:	defff404 	addi	sp,sp,-48
 80047c0:	dfc00b15 	stw	ra,44(sp)
 80047c4:	df000a15 	stw	fp,40(sp)
 80047c8:	df000a04 	addi	fp,sp,40
 80047cc:	2005883a 	mov	r2,r4
 80047d0:	e0bfff0d 	sth	r2,-4(fp)
	if (in_check == 0) {
 80047d4:	d0a6e50b 	ldhu	r2,-25708(gp)
 80047d8:	10bfffcc 	andi	r2,r2,65535
 80047dc:	1000021e 	bne	r2,zero,80047e8 <checkMate+0x2c>
		return 0;
 80047e0:	0005883a 	mov	r2,zero
 80047e4:	0006fe06 	br	80063e0 <checkMate+0x1c24>
	}

	alt_u16 adjusted_hash = in_check_hash - 1;
 80047e8:	e0bfff0b 	ldhu	r2,-4(fp)
 80047ec:	10bfffc4 	addi	r2,r2,-1
 80047f0:	e0bffd0d 	sth	r2,-12(fp)
	// Enemy piece
	alt_u8 piece = (alt_u8) (adjusted_hash >> 6);
 80047f4:	e0bffd0b 	ldhu	r2,-12(fp)
 80047f8:	1004d1ba 	srli	r2,r2,6
 80047fc:	e0bffd85 	stb	r2,-10(fp)
	printf("Piece value: %d\n", piece);
 8004800:	e0bffd83 	ldbu	r2,-10(fp)
 8004804:	100b883a 	mov	r5,r2
 8004808:	010200b4 	movhi	r4,2050
 800480c:	21226e04 	addi	r4,r4,-30280
 8004810:	8008fbc0 	call	8008fbc <printf>
	// Enemy square
	alt_u8 row1 = (alt_u8) ((adjusted_hash & 0x28) >> 3);
 8004814:	e0bffd0b 	ldhu	r2,-12(fp)
 8004818:	10800a0c 	andi	r2,r2,40
 800481c:	1005d0fa 	srai	r2,r2,3
 8004820:	e0bffdc5 	stb	r2,-9(fp)
	printf("Enemy at row: %d\n", row1);
 8004824:	e0bffdc3 	ldbu	r2,-9(fp)
 8004828:	100b883a 	mov	r5,r2
 800482c:	010200b4 	movhi	r4,2050
 8004830:	21227304 	addi	r4,r4,-30260
 8004834:	8008fbc0 	call	8008fbc <printf>
	alt_u8 col1 = (alt_u8) (adjusted_hash & 0x07);
 8004838:	e0bffd0b 	ldhu	r2,-12(fp)
 800483c:	108001cc 	andi	r2,r2,7
 8004840:	e0bffe05 	stb	r2,-8(fp)
	printf("Enemy at col: %d\n", col1);
 8004844:	e0bffe03 	ldbu	r2,-8(fp)
 8004848:	100b883a 	mov	r5,r2
 800484c:	010200b4 	movhi	r4,2050
 8004850:	21227804 	addi	r4,r4,-30240
 8004854:	8008fbc0 	call	8008fbc <printf>
	// Friendly square
	alt_u8 row2;
	alt_u8 col2;

	if (player_turn == WHITE) {
 8004858:	d0a6e683 	ldbu	r2,-25702(gp)
 800485c:	10803fcc 	andi	r2,r2,255
 8004860:	10800058 	cmpnei	r2,r2,1
 8004864:	1000051e 	bne	r2,zero,800487c <checkMate+0xc0>
		row2 = W_kingY;
 8004868:	d0a6e5c3 	ldbu	r2,-25705(gp)
 800486c:	e0bff605 	stb	r2,-40(fp)
		col2 = W_kingX;
 8004870:	d0a6e583 	ldbu	r2,-25706(gp)
 8004874:	e0bff645 	stb	r2,-39(fp)
 8004878:	00000406 	br	800488c <checkMate+0xd0>
	}
	else {
		row2 = B_kingY;
 800487c:	d0a6e643 	ldbu	r2,-25703(gp)
 8004880:	e0bff605 	stb	r2,-40(fp)
		col2 = B_kingX;
 8004884:	d0a6e603 	ldbu	r2,-25704(gp)
 8004888:	e0bff645 	stb	r2,-39(fp)
	}

	int dirRow, dirCol;

	if (row1 > row2) {
 800488c:	e0bffdc3 	ldbu	r2,-9(fp)
 8004890:	e0fff603 	ldbu	r3,-40(fp)
 8004894:	1880032e 	bgeu	r3,r2,80048a4 <checkMate+0xe8>
		dirRow = -1;
 8004898:	00bfffc4 	movi	r2,-1
 800489c:	e0bff715 	stw	r2,-36(fp)
 80048a0:	00000706 	br	80048c0 <checkMate+0x104>
	} else if (row1 < row2) {
 80048a4:	e0fffdc3 	ldbu	r3,-9(fp)
 80048a8:	e0bff603 	ldbu	r2,-40(fp)
 80048ac:	1880032e 	bgeu	r3,r2,80048bc <checkMate+0x100>
		dirRow = 1;
 80048b0:	00800044 	movi	r2,1
 80048b4:	e0bff715 	stw	r2,-36(fp)
 80048b8:	00000106 	br	80048c0 <checkMate+0x104>
	} else {
		dirRow = 0;
 80048bc:	e03ff715 	stw	zero,-36(fp)
	}

	if (col1 > col2) {
 80048c0:	e0bffe03 	ldbu	r2,-8(fp)
 80048c4:	e0fff643 	ldbu	r3,-39(fp)
 80048c8:	1880032e 	bgeu	r3,r2,80048d8 <checkMate+0x11c>
		dirCol = -1;
 80048cc:	00bfffc4 	movi	r2,-1
 80048d0:	e0bff815 	stw	r2,-32(fp)
 80048d4:	00000706 	br	80048f4 <checkMate+0x138>
	} else if (col1 < col2) {
 80048d8:	e0fffe03 	ldbu	r3,-8(fp)
 80048dc:	e0bff643 	ldbu	r2,-39(fp)
 80048e0:	1880032e 	bgeu	r3,r2,80048f0 <checkMate+0x134>
		dirCol = 1;
 80048e4:	00800044 	movi	r2,1
 80048e8:	e0bff815 	stw	r2,-32(fp)
 80048ec:	00000106 	br	80048f4 <checkMate+0x138>
	} else {
		dirCol = 0;
 80048f0:	e03ff815 	stw	zero,-32(fp)
	}

	int r = row1;
 80048f4:	e0bffdc3 	ldbu	r2,-9(fp)
 80048f8:	e0bff915 	stw	r2,-28(fp)
	int c = col1;
 80048fc:	e0bffe03 	ldbu	r2,-8(fp)
 8004900:	e0bffa15 	stw	r2,-24(fp)
	int ri, ci;

	switch (piece) {
 8004904:	e0bffd83 	ldbu	r2,-10(fp)
 8004908:	10c00168 	cmpgeui	r3,r2,5
 800490c:	18065d1e 	bne	r3,zero,8006284 <checkMate+0x1ac8>
 8004910:	100690ba 	slli	r3,r2,2
 8004914:	00820034 	movhi	r2,2048
 8004918:	10924a04 	addi	r2,r2,18728
 800491c:	1885883a 	add	r2,r3,r2
 8004920:	10800017 	ldw	r2,0(r2)
 8004924:	1000683a 	jmp	r2
 8004928:	08005670 	cmpltui	zero,at,345
 800492c:	08005654 	ori	zero,at,345
 8004930:	08005670 	cmpltui	zero,at,345
 8004934:	08005654 	ori	zero,at,345
 8004938:	08005654 	ori	zero,at,345
		case BISHOP:
		case ROOK:
		case QUEEN:
			while (r != row2 && c != col2) {
				printf("r: %d, c: %d, player_turn: %d\n", r, c, player_turn);
 800493c:	d0a6e683 	ldbu	r2,-25702(gp)
 8004940:	10803fcc 	andi	r2,r2,255
 8004944:	100f883a 	mov	r7,r2
 8004948:	e1bffa17 	ldw	r6,-24(fp)
 800494c:	e17ff917 	ldw	r5,-28(fp)
 8004950:	010200b4 	movhi	r4,2050
 8004954:	21227d04 	addi	r4,r4,-30220
 8004958:	8008fbc0 	call	8008fbc <printf>

				// Possible pawn block?
				if (r == row1 && c == col1) {
 800495c:	e0fffdc3 	ldbu	r3,-9(fp)
 8004960:	e0bff917 	ldw	r2,-28(fp)
 8004964:	18804d1e 	bne	r3,r2,8004a9c <checkMate+0x2e0>
 8004968:	e0fffe03 	ldbu	r3,-8(fp)
 800496c:	e0bffa17 	ldw	r2,-24(fp)
 8004970:	18804a1e 	bne	r3,r2,8004a9c <checkMate+0x2e0>
					if (player_turn == WHITE) {
 8004974:	d0a6e683 	ldbu	r2,-25702(gp)
 8004978:	10803fcc 	andi	r2,r2,255
 800497c:	10800058 	cmpnei	r2,r2,1
 8004980:	1000231e 	bne	r2,zero,8004a10 <checkMate+0x254>
						if ((c > 0 && CHECK_SQUARE_FRIENDLY_IS_PIECE(r + 1, c - 1, player_turn, PAWN)) || (c <= 6 && CHECK_SQUARE_FRIENDLY_IS_PIECE(r + 1, c + 1, player_turn, PAWN))) {
 8004984:	e0bffa17 	ldw	r2,-24(fp)
 8004988:	00800e0e 	bge	zero,r2,80049c4 <checkMate+0x208>
 800498c:	d0e00017 	ldw	r3,-32768(gp)
 8004990:	e0bff917 	ldw	r2,-28(fp)
 8004994:	10800044 	addi	r2,r2,1
 8004998:	100890fa 	slli	r4,r2,3
 800499c:	e0bffa17 	ldw	r2,-24(fp)
 80049a0:	10bfffc4 	addi	r2,r2,-1
 80049a4:	2085883a 	add	r2,r4,r2
 80049a8:	1885883a 	add	r2,r3,r2
 80049ac:	10800003 	ldbu	r2,0(r2)
 80049b0:	10803fcc 	andi	r2,r2,255
 80049b4:	10c003cc 	andi	r3,r2,15
 80049b8:	d0a6e683 	ldbu	r2,-25702(gp)
 80049bc:	10803fcc 	andi	r2,r2,255
 80049c0:	18801126 	beq	r3,r2,8004a08 <checkMate+0x24c>
 80049c4:	e0bffa17 	ldw	r2,-24(fp)
 80049c8:	108001c8 	cmpgei	r2,r2,7
 80049cc:	1000931e 	bne	r2,zero,8004c1c <checkMate+0x460>
 80049d0:	d0e00017 	ldw	r3,-32768(gp)
 80049d4:	e0bff917 	ldw	r2,-28(fp)
 80049d8:	10800044 	addi	r2,r2,1
 80049dc:	100890fa 	slli	r4,r2,3
 80049e0:	e0bffa17 	ldw	r2,-24(fp)
 80049e4:	10800044 	addi	r2,r2,1
 80049e8:	2085883a 	add	r2,r4,r2
 80049ec:	1885883a 	add	r2,r3,r2
 80049f0:	10800003 	ldbu	r2,0(r2)
 80049f4:	10803fcc 	andi	r2,r2,255
 80049f8:	10c003cc 	andi	r3,r2,15
 80049fc:	d0a6e683 	ldbu	r2,-25702(gp)
 8004a00:	10803fcc 	andi	r2,r2,255
 8004a04:	1880851e 	bne	r3,r2,8004c1c <checkMate+0x460>
							return 0;
 8004a08:	0005883a 	mov	r2,zero
 8004a0c:	00067406 	br	80063e0 <checkMate+0x1c24>
						}
					} else {
						if ((c > 0 && CHECK_SQUARE_FRIENDLY_IS_PIECE(r - 1, c - 1, player_turn, PAWN)) || (c <= 6 && CHECK_SQUARE_FRIENDLY_IS_PIECE(r - 1, c + 1, player_turn, PAWN))) {
 8004a10:	e0bffa17 	ldw	r2,-24(fp)
 8004a14:	00800e0e 	bge	zero,r2,8004a50 <checkMate+0x294>
 8004a18:	d0e00017 	ldw	r3,-32768(gp)
 8004a1c:	e0bff917 	ldw	r2,-28(fp)
 8004a20:	10bfffc4 	addi	r2,r2,-1
 8004a24:	100890fa 	slli	r4,r2,3
 8004a28:	e0bffa17 	ldw	r2,-24(fp)
 8004a2c:	10bfffc4 	addi	r2,r2,-1
 8004a30:	2085883a 	add	r2,r4,r2
 8004a34:	1885883a 	add	r2,r3,r2
 8004a38:	10800003 	ldbu	r2,0(r2)
 8004a3c:	10803fcc 	andi	r2,r2,255
 8004a40:	10c003cc 	andi	r3,r2,15
 8004a44:	d0a6e683 	ldbu	r2,-25702(gp)
 8004a48:	10803fcc 	andi	r2,r2,255
 8004a4c:	18801126 	beq	r3,r2,8004a94 <checkMate+0x2d8>
 8004a50:	e0bffa17 	ldw	r2,-24(fp)
 8004a54:	108001c8 	cmpgei	r2,r2,7
 8004a58:	1000701e 	bne	r2,zero,8004c1c <checkMate+0x460>
 8004a5c:	d0e00017 	ldw	r3,-32768(gp)
 8004a60:	e0bff917 	ldw	r2,-28(fp)
 8004a64:	10bfffc4 	addi	r2,r2,-1
 8004a68:	100890fa 	slli	r4,r2,3
 8004a6c:	e0bffa17 	ldw	r2,-24(fp)
 8004a70:	10800044 	addi	r2,r2,1
 8004a74:	2085883a 	add	r2,r4,r2
 8004a78:	1885883a 	add	r2,r3,r2
 8004a7c:	10800003 	ldbu	r2,0(r2)
 8004a80:	10803fcc 	andi	r2,r2,255
 8004a84:	10c003cc 	andi	r3,r2,15
 8004a88:	d0a6e683 	ldbu	r2,-25702(gp)
 8004a8c:	10803fcc 	andi	r2,r2,255
 8004a90:	1880621e 	bne	r3,r2,8004c1c <checkMate+0x460>
							return 0;
 8004a94:	0005883a 	mov	r2,zero
 8004a98:	00065106 	br	80063e0 <checkMate+0x1c24>
						}
					}
				}
				else {
					if (player_turn == WHITE) {
 8004a9c:	d0a6e683 	ldbu	r2,-25702(gp)
 8004aa0:	10803fcc 	andi	r2,r2,255
 8004aa4:	10800058 	cmpnei	r2,r2,1
 8004aa8:	10002e1e 	bne	r2,zero,8004b64 <checkMate+0x3a8>
						if (r == 4) {
 8004aac:	e0bff917 	ldw	r2,-28(fp)
 8004ab0:	10800118 	cmpnei	r2,r2,4
 8004ab4:	10001c1e 	bne	r2,zero,8004b28 <checkMate+0x36c>
							if (CHECK_SQUARE_FRIENDLY_IS_PIECE(r + 1, c, player_turn, PAWN) || CHECK_SQUARE_FRIENDLY_IS_PIECE(r + 2, c, player_turn, PAWN)) {
 8004ab8:	d0e00017 	ldw	r3,-32768(gp)
 8004abc:	e0bff917 	ldw	r2,-28(fp)
 8004ac0:	10800044 	addi	r2,r2,1
 8004ac4:	100890fa 	slli	r4,r2,3
 8004ac8:	e0bffa17 	ldw	r2,-24(fp)
 8004acc:	2085883a 	add	r2,r4,r2
 8004ad0:	1885883a 	add	r2,r3,r2
 8004ad4:	10800003 	ldbu	r2,0(r2)
 8004ad8:	10803fcc 	andi	r2,r2,255
 8004adc:	10c003cc 	andi	r3,r2,15
 8004ae0:	d0a6e683 	ldbu	r2,-25702(gp)
 8004ae4:	10803fcc 	andi	r2,r2,255
 8004ae8:	18800d26 	beq	r3,r2,8004b20 <checkMate+0x364>
 8004aec:	d0e00017 	ldw	r3,-32768(gp)
 8004af0:	e0bff917 	ldw	r2,-28(fp)
 8004af4:	10800084 	addi	r2,r2,2
 8004af8:	100890fa 	slli	r4,r2,3
 8004afc:	e0bffa17 	ldw	r2,-24(fp)
 8004b00:	2085883a 	add	r2,r4,r2
 8004b04:	1885883a 	add	r2,r3,r2
 8004b08:	10800003 	ldbu	r2,0(r2)
 8004b0c:	10803fcc 	andi	r2,r2,255
 8004b10:	10c003cc 	andi	r3,r2,15
 8004b14:	d0a6e683 	ldbu	r2,-25702(gp)
 8004b18:	10803fcc 	andi	r2,r2,255
 8004b1c:	1880401e 	bne	r3,r2,8004c20 <checkMate+0x464>
								return 0;
 8004b20:	0005883a 	mov	r2,zero
 8004b24:	00062e06 	br	80063e0 <checkMate+0x1c24>
							}
						} else {
							if (CHECK_SQUARE_FRIENDLY_IS_PIECE(r + 1, c, player_turn, PAWN)) {
 8004b28:	d0e00017 	ldw	r3,-32768(gp)
 8004b2c:	e0bff917 	ldw	r2,-28(fp)
 8004b30:	10800044 	addi	r2,r2,1
 8004b34:	100890fa 	slli	r4,r2,3
 8004b38:	e0bffa17 	ldw	r2,-24(fp)
 8004b3c:	2085883a 	add	r2,r4,r2
 8004b40:	1885883a 	add	r2,r3,r2
 8004b44:	10800003 	ldbu	r2,0(r2)
 8004b48:	10803fcc 	andi	r2,r2,255
 8004b4c:	10c003cc 	andi	r3,r2,15
 8004b50:	d0a6e683 	ldbu	r2,-25702(gp)
 8004b54:	10803fcc 	andi	r2,r2,255
 8004b58:	1880311e 	bne	r3,r2,8004c20 <checkMate+0x464>
								return 0;
 8004b5c:	0005883a 	mov	r2,zero
 8004b60:	00061f06 	br	80063e0 <checkMate+0x1c24>
							}
						}
					} else {
						if (r == 5) {
 8004b64:	e0bff917 	ldw	r2,-28(fp)
 8004b68:	10800158 	cmpnei	r2,r2,5
 8004b6c:	10001c1e 	bne	r2,zero,8004be0 <checkMate+0x424>
							if (CHECK_SQUARE_FRIENDLY_IS_PIECE(r - 1, c, player_turn, PAWN) || CHECK_SQUARE_FRIENDLY_IS_PIECE(r - 2, c, player_turn, PAWN)) {
 8004b70:	d0e00017 	ldw	r3,-32768(gp)
 8004b74:	e0bff917 	ldw	r2,-28(fp)
 8004b78:	10bfffc4 	addi	r2,r2,-1
 8004b7c:	100890fa 	slli	r4,r2,3
 8004b80:	e0bffa17 	ldw	r2,-24(fp)
 8004b84:	2085883a 	add	r2,r4,r2
 8004b88:	1885883a 	add	r2,r3,r2
 8004b8c:	10800003 	ldbu	r2,0(r2)
 8004b90:	10803fcc 	andi	r2,r2,255
 8004b94:	10c003cc 	andi	r3,r2,15
 8004b98:	d0a6e683 	ldbu	r2,-25702(gp)
 8004b9c:	10803fcc 	andi	r2,r2,255
 8004ba0:	18800d26 	beq	r3,r2,8004bd8 <checkMate+0x41c>
 8004ba4:	d0e00017 	ldw	r3,-32768(gp)
 8004ba8:	e0bff917 	ldw	r2,-28(fp)
 8004bac:	10bfff84 	addi	r2,r2,-2
 8004bb0:	100890fa 	slli	r4,r2,3
 8004bb4:	e0bffa17 	ldw	r2,-24(fp)
 8004bb8:	2085883a 	add	r2,r4,r2
 8004bbc:	1885883a 	add	r2,r3,r2
 8004bc0:	10800003 	ldbu	r2,0(r2)
 8004bc4:	10803fcc 	andi	r2,r2,255
 8004bc8:	10c003cc 	andi	r3,r2,15
 8004bcc:	d0a6e683 	ldbu	r2,-25702(gp)
 8004bd0:	10803fcc 	andi	r2,r2,255
 8004bd4:	1880121e 	bne	r3,r2,8004c20 <checkMate+0x464>
								return 0;
 8004bd8:	0005883a 	mov	r2,zero
 8004bdc:	00060006 	br	80063e0 <checkMate+0x1c24>
							}
						} else {
							if (CHECK_SQUARE_FRIENDLY_IS_PIECE(r - 1, c, player_turn, PAWN)) {
 8004be0:	d0e00017 	ldw	r3,-32768(gp)
 8004be4:	e0bff917 	ldw	r2,-28(fp)
 8004be8:	10bfffc4 	addi	r2,r2,-1
 8004bec:	100890fa 	slli	r4,r2,3
 8004bf0:	e0bffa17 	ldw	r2,-24(fp)
 8004bf4:	2085883a 	add	r2,r4,r2
 8004bf8:	1885883a 	add	r2,r3,r2
 8004bfc:	10800003 	ldbu	r2,0(r2)
 8004c00:	10803fcc 	andi	r2,r2,255
 8004c04:	10c003cc 	andi	r3,r2,15
 8004c08:	d0a6e683 	ldbu	r2,-25702(gp)
 8004c0c:	10803fcc 	andi	r2,r2,255
 8004c10:	1880031e 	bne	r3,r2,8004c20 <checkMate+0x464>
								return 0;
 8004c14:	0005883a 	mov	r2,zero
 8004c18:	0005f106 	br	80063e0 <checkMate+0x1c24>
			while (r != row2 && c != col2) {
				printf("r: %d, c: %d, player_turn: %d\n", r, c, player_turn);

				// Possible pawn block?
				if (r == row1 && c == col1) {
					if (player_turn == WHITE) {
 8004c1c:	0001883a 	nop
						}
					}
				}

				// Possible knight block?
				if (r >= 2) {
 8004c20:	e0bff917 	ldw	r2,-28(fp)
 8004c24:	10800090 	cmplti	r2,r2,2
 8004c28:	1000271e 	bne	r2,zero,8004cc8 <checkMate+0x50c>
					if (c >= 1 && CHECK_SQUARE_FRIENDLY_IS_PIECE(r - 2, c - 1, player_turn, KNIGHT)) {
 8004c2c:	e0bffa17 	ldw	r2,-24(fp)
 8004c30:	0080110e 	bge	zero,r2,8004c78 <checkMate+0x4bc>
 8004c34:	d0e00017 	ldw	r3,-32768(gp)
 8004c38:	e0bff917 	ldw	r2,-28(fp)
 8004c3c:	10bfff84 	addi	r2,r2,-2
 8004c40:	100890fa 	slli	r4,r2,3
 8004c44:	e0bffa17 	ldw	r2,-24(fp)
 8004c48:	10bfffc4 	addi	r2,r2,-1
 8004c4c:	2085883a 	add	r2,r4,r2
 8004c50:	1885883a 	add	r2,r3,r2
 8004c54:	10800003 	ldbu	r2,0(r2)
 8004c58:	10803fcc 	andi	r2,r2,255
 8004c5c:	10c003cc 	andi	r3,r2,15
 8004c60:	d0a6e683 	ldbu	r2,-25702(gp)
 8004c64:	10803fcc 	andi	r2,r2,255
 8004c68:	10800104 	addi	r2,r2,4
 8004c6c:	1880021e 	bne	r3,r2,8004c78 <checkMate+0x4bc>
						return 0;
 8004c70:	0005883a 	mov	r2,zero
 8004c74:	0005da06 	br	80063e0 <checkMate+0x1c24>
					}
					if (c <= 6 && CHECK_SQUARE_FRIENDLY_IS_PIECE(r - 2, c + 1, player_turn, KNIGHT)) {
 8004c78:	e0bffa17 	ldw	r2,-24(fp)
 8004c7c:	108001c8 	cmpgei	r2,r2,7
 8004c80:	1000111e 	bne	r2,zero,8004cc8 <checkMate+0x50c>
 8004c84:	d0e00017 	ldw	r3,-32768(gp)
 8004c88:	e0bff917 	ldw	r2,-28(fp)
 8004c8c:	10bfff84 	addi	r2,r2,-2
 8004c90:	100890fa 	slli	r4,r2,3
 8004c94:	e0bffa17 	ldw	r2,-24(fp)
 8004c98:	10800044 	addi	r2,r2,1
 8004c9c:	2085883a 	add	r2,r4,r2
 8004ca0:	1885883a 	add	r2,r3,r2
 8004ca4:	10800003 	ldbu	r2,0(r2)
 8004ca8:	10803fcc 	andi	r2,r2,255
 8004cac:	10c003cc 	andi	r3,r2,15
 8004cb0:	d0a6e683 	ldbu	r2,-25702(gp)
 8004cb4:	10803fcc 	andi	r2,r2,255
 8004cb8:	10800104 	addi	r2,r2,4
 8004cbc:	1880021e 	bne	r3,r2,8004cc8 <checkMate+0x50c>
						return 0;
 8004cc0:	0005883a 	mov	r2,zero
 8004cc4:	0005c606 	br	80063e0 <checkMate+0x1c24>
					}
				}
				if (r >= 1) {
 8004cc8:	e0bff917 	ldw	r2,-28(fp)
 8004ccc:	0080280e 	bge	zero,r2,8004d70 <checkMate+0x5b4>
					if (c >= 2 && CHECK_SQUARE_FRIENDLY_IS_PIECE(r - 1, c - 2, player_turn, KNIGHT)) {
 8004cd0:	e0bffa17 	ldw	r2,-24(fp)
 8004cd4:	10800090 	cmplti	r2,r2,2
 8004cd8:	1000111e 	bne	r2,zero,8004d20 <checkMate+0x564>
 8004cdc:	d0e00017 	ldw	r3,-32768(gp)
 8004ce0:	e0bff917 	ldw	r2,-28(fp)
 8004ce4:	10bfffc4 	addi	r2,r2,-1
 8004ce8:	100890fa 	slli	r4,r2,3
 8004cec:	e0bffa17 	ldw	r2,-24(fp)
 8004cf0:	10bfff84 	addi	r2,r2,-2
 8004cf4:	2085883a 	add	r2,r4,r2
 8004cf8:	1885883a 	add	r2,r3,r2
 8004cfc:	10800003 	ldbu	r2,0(r2)
 8004d00:	10803fcc 	andi	r2,r2,255
 8004d04:	10c003cc 	andi	r3,r2,15
 8004d08:	d0a6e683 	ldbu	r2,-25702(gp)
 8004d0c:	10803fcc 	andi	r2,r2,255
 8004d10:	10800104 	addi	r2,r2,4
 8004d14:	1880021e 	bne	r3,r2,8004d20 <checkMate+0x564>
						return 0;
 8004d18:	0005883a 	mov	r2,zero
 8004d1c:	0005b006 	br	80063e0 <checkMate+0x1c24>
					}
					if (c <= 5 && CHECK_SQUARE_FRIENDLY_IS_PIECE(r - 1, c + 2, player_turn, KNIGHT)) {
 8004d20:	e0bffa17 	ldw	r2,-24(fp)
 8004d24:	10800188 	cmpgei	r2,r2,6
 8004d28:	1000111e 	bne	r2,zero,8004d70 <checkMate+0x5b4>
 8004d2c:	d0e00017 	ldw	r3,-32768(gp)
 8004d30:	e0bff917 	ldw	r2,-28(fp)
 8004d34:	10bfffc4 	addi	r2,r2,-1
 8004d38:	100890fa 	slli	r4,r2,3
 8004d3c:	e0bffa17 	ldw	r2,-24(fp)
 8004d40:	10800084 	addi	r2,r2,2
 8004d44:	2085883a 	add	r2,r4,r2
 8004d48:	1885883a 	add	r2,r3,r2
 8004d4c:	10800003 	ldbu	r2,0(r2)
 8004d50:	10803fcc 	andi	r2,r2,255
 8004d54:	10c003cc 	andi	r3,r2,15
 8004d58:	d0a6e683 	ldbu	r2,-25702(gp)
 8004d5c:	10803fcc 	andi	r2,r2,255
 8004d60:	10800104 	addi	r2,r2,4
 8004d64:	1880021e 	bne	r3,r2,8004d70 <checkMate+0x5b4>
						return 0;
 8004d68:	0005883a 	mov	r2,zero
 8004d6c:	00059c06 	br	80063e0 <checkMate+0x1c24>
					}
				}
				if (r <= 5) {
 8004d70:	e0bff917 	ldw	r2,-28(fp)
 8004d74:	10800188 	cmpgei	r2,r2,6
 8004d78:	1000271e 	bne	r2,zero,8004e18 <checkMate+0x65c>
					if (c >= 1 && CHECK_SQUARE_FRIENDLY_IS_PIECE(r + 2, c - 1, player_turn, KNIGHT)) {
 8004d7c:	e0bffa17 	ldw	r2,-24(fp)
 8004d80:	0080110e 	bge	zero,r2,8004dc8 <checkMate+0x60c>
 8004d84:	d0e00017 	ldw	r3,-32768(gp)
 8004d88:	e0bff917 	ldw	r2,-28(fp)
 8004d8c:	10800084 	addi	r2,r2,2
 8004d90:	100890fa 	slli	r4,r2,3
 8004d94:	e0bffa17 	ldw	r2,-24(fp)
 8004d98:	10bfffc4 	addi	r2,r2,-1
 8004d9c:	2085883a 	add	r2,r4,r2
 8004da0:	1885883a 	add	r2,r3,r2
 8004da4:	10800003 	ldbu	r2,0(r2)
 8004da8:	10803fcc 	andi	r2,r2,255
 8004dac:	10c003cc 	andi	r3,r2,15
 8004db0:	d0a6e683 	ldbu	r2,-25702(gp)
 8004db4:	10803fcc 	andi	r2,r2,255
 8004db8:	10800104 	addi	r2,r2,4
 8004dbc:	1880021e 	bne	r3,r2,8004dc8 <checkMate+0x60c>
